Archive member included because of file (symbol)

c:/program files (x86)/microchip/mplabc32/v2.02/bin/../lib/gcc/pic32mx/4.5.1\libgcc.a(floatunsisf.o)
                              build/default/production/src/tor.o (__floatunsisf)
c:/program files (x86)/microchip/mplabc32/v2.02/bin/../lib/gcc/pic32mx/4.5.1/../../../../pic32mx/lib\libc.a(memcpy.o)
                              build/default/production/src/comsbusmaitre.o (memcpy)
c:/program files (x86)/microchip/mplabc32/v2.02/bin/../lib/gcc/pic32mx/4.5.1/../../../../pic32mx/lib\libc.a(memset.o)
                              build/default/production/src/gsm.o (memset)
c:/program files (x86)/microchip/mplabc32/v2.02/bin/../lib/gcc/pic32mx/4.5.1/../../../../pic32mx/lib\libc.a(strcmp.o)
                              build/default/production/src/clock.o (strcmp)
c:/program files (x86)/microchip/mplabc32/v2.02/bin/../lib/gcc/pic32mx/4.5.1/../../../../pic32mx/lib\libc.a(strcpy.o)
                              build/default/production/src/gsm.o (strcpy)
c:/program files (x86)/microchip/mplabc32/v2.02/bin/../lib/gcc/pic32mx/4.5.1/../../../../pic32mx/lib\libc.a(strlen.o)
                              build/default/production/src/gsm.o (strlen)
c:/program files (x86)/microchip/mplabc32/v2.02/bin/../lib/gcc/pic32mx/4.5.1/../../../../pic32mx/lib\libc.a(general-exception.o)
                              c:/program files (x86)/microchip/mplabc32/v2.02/bin/../lib/gcc/pic32mx/4.5.1/../../../../pic32mx/lib/crt0.o (_general_exception_context)
c:/program files (x86)/microchip/mplabc32/v2.02/bin/../lib/gcc/pic32mx/4.5.1/../../../../pic32mx/lib\libc.a(atoi.o)
                              build/default/production/src/clock.o (atoi)
c:/program files (x86)/microchip/mplabc32/v2.02/bin/../lib/gcc/pic32mx/4.5.1/../../../../pic32mx/lib\libc.a(atol.o)
                              build/default/production/src/gsm.o (atol)
c:/program files (x86)/microchip/mplabc32/v2.02/bin/../lib/gcc/pic32mx/4.5.1/../../../../pic32mx/lib\libc.a(ctime.o)
                              build/default/production/src/clock.o (localtime)
c:/program files (x86)/microchip/mplabc32/v2.02/bin/../lib/gcc/pic32mx/4.5.1/../../../../pic32mx/lib\libc.a(ctype.o)
                              c:/program files (x86)/microchip/mplabc32/v2.02/bin/../lib/gcc/pic32mx/4.5.1/../../../../pic32mx/lib\libc.a(atoi.o) (_ctype)
c:/program files (x86)/microchip/mplabc32/v2.02/bin/../lib/gcc/pic32mx/4.5.1/../../../../pic32mx/lib\libc.a(ctypef.o)
                              build/default/production/src/terminal.o (toupper)
c:/program files (x86)/microchip/mplabc32/v2.02/bin/../lib/gcc/pic32mx/4.5.1/../../../../pic32mx/lib\libc.a(mktime.o)
                              build/default/production/src/clock.o (mktime)
c:/program files (x86)/microchip/mplabc32/v2.02/bin/../lib/gcc/pic32mx/4.5.1/../../../../pic32mx/lib\libc.a(strcat.o)
                              build/default/production/src/gsm.o (strcat)
c:/program files (x86)/microchip/mplabc32/v2.02/bin/../lib/gcc/pic32mx/4.5.1/../../../../pic32mx/lib\libc.a(strchr.o)
                              build/default/production/src/gsm+.o (strchr)
c:/program files (x86)/microchip/mplabc32/v2.02/bin/../lib/gcc/pic32mx/4.5.1/../../../../pic32mx/lib\libc.a(strncat.o)
                              build/default/production/src/gsm.o (strncat)
c:/program files (x86)/microchip/mplabc32/v2.02/bin/../lib/gcc/pic32mx/4.5.1/../../../../pic32mx/lib\libc.a(strncmp.o)
                              build/default/production/src/gsm.o (strncmp)
c:/program files (x86)/microchip/mplabc32/v2.02/bin/../lib/gcc/pic32mx/4.5.1/../../../../pic32mx/lib\libc.a(strncpy.o)
                              build/default/production/src/gsm.o (strncpy)
c:/program files (x86)/microchip/mplabc32/v2.02/bin/../lib/gcc/pic32mx/4.5.1/../../../../pic32mx/lib\libc.a(strstr.o)
                              build/default/production/src/gsm.o (strstr)
c:/program files (x86)/microchip/mplabc32/v2.02/bin/../lib/gcc/pic32mx/4.5.1/../../../../pic32mx/lib\libc.a(strtok.o)
                              build/default/production/src/clock.o (strtok)
c:/program files (x86)/microchip/mplabc32/v2.02/bin/../lib/gcc/pic32mx/4.5.1/../../../../pic32mx/lib\libc.a(xtoi.o)
                              build/default/production/src/gsm.o (xtoi)
c:/program files (x86)/microchip/mplabc32/v2.02/bin/../lib/gcc/pic32mx/4.5.1/../../../../pic32mx/lib\libc.a(atof.o)
                              build/default/production/src/gsm+.o (atof)
c:/program files (x86)/microchip/mplabc32/v2.02/bin/../lib/gcc/pic32mx/4.5.1/../../../../pic32mx/lib\libc.a(sprintf_cdfFnopsuxX.eo)
                              build/default/production/src/gsm+.o (_sprintf_cdfFnopsuxX)
c:/program files (x86)/microchip/mplabc32/v2.02/bin/../lib/gcc/pic32mx/4.5.1/../../../../pic32mx/lib\libc.a(sprintf_fF.eo)
                              build/default/production/src/terminal.o (_sprintf_fF)
c:/program files (x86)/microchip/mplabc32/v2.02/bin/../lib/gcc/pic32mx/4.5.1/../../../../pic32mx/lib\libc.a(sprintf_s.eo)
                              build/default/production/src/gsm.o (_sprintf_s)
c:/program files (x86)/microchip/mplabc32/v2.02/bin/../lib/gcc/pic32mx/4.5.1/../../../../pic32mx/lib\libc.a(default-bootstrap-exception-handler.o)
                              c:/program files (x86)/microchip/mplabc32/v2.02/bin/../lib/gcc/pic32mx/4.5.1/../../../../pic32mx/lib/crt0.o (_bootstrap_exception_handler)
c:/program files (x86)/microchip/mplabc32/v2.02/bin/../lib/gcc/pic32mx/4.5.1/../../../../pic32mx/lib\libc.a(default-on-reset.o)
                              c:/program files (x86)/microchip/mplabc32/v2.02/bin/../lib/gcc/pic32mx/4.5.1/../../../../pic32mx/lib/crt0.o (_on_reset)
c:/program files (x86)/microchip/mplabc32/v2.02/bin/../lib/gcc/pic32mx/4.5.1/../../../../pic32mx/lib\libc.a(default-on-bootstrap.o)
                              c:/program files (x86)/microchip/mplabc32/v2.02/bin/../lib/gcc/pic32mx/4.5.1/../../../../pic32mx/lib/crt0.o (_on_bootstrap)
c:/program files (x86)/microchip/mplabc32/v2.02/bin/../lib/gcc/pic32mx/4.5.1/../../../../pic32mx/lib\libc.a(default-nmi-handler.o)
                              c:/program files (x86)/microchip/mplabc32/v2.02/bin/../lib/gcc/pic32mx/4.5.1/../../../../pic32mx/lib/crt0.o (_nmi_handler)
c:/program files (x86)/microchip/mplabc32/v2.02/bin/../lib/gcc/pic32mx/4.5.1/../../../../pic32mx/lib\libc.a(strcspn.o)
                              c:/program files (x86)/microchip/mplabc32/v2.02/bin/../lib/gcc/pic32mx/4.5.1/../../../../pic32mx/lib\libc.a(strtok.o) (strcspn)
c:/program files (x86)/microchip/mplabc32/v2.02/bin/../lib/gcc/pic32mx/4.5.1/../../../../pic32mx/lib\libc.a(strspn.o)
                              c:/program files (x86)/microchip/mplabc32/v2.02/bin/../lib/gcc/pic32mx/4.5.1/../../../../pic32mx/lib\libc.a(strtok.o) (strspn)
c:/program files (x86)/microchip/mplabc32/v2.02/bin/../lib/gcc/pic32mx/4.5.1/../../../../pic32mx/lib\libc.a(strtod.o)
                              c:/program files (x86)/microchip/mplabc32/v2.02/bin/../lib/gcc/pic32mx/4.5.1/../../../../pic32mx/lib\libc.a(atof.o) (_dstrtod)
c:/program files (x86)/microchip/mplabc32/v2.02/bin/../lib/gcc/pic32mx/4.5.1/../../../../pic32mx/lib\libc.a(doprnt_cdfFnopsuxX.eo)
                              c:/program files (x86)/microchip/mplabc32/v2.02/bin/../lib/gcc/pic32mx/4.5.1/../../../../pic32mx/lib\libc.a(sprintf_cdfFnopsuxX.eo) (_vfprintf_cdfFnopsuxX)
c:/program files (x86)/microchip/mplabc32/v2.02/bin/../lib/gcc/pic32mx/4.5.1/../../../../pic32mx/lib\libc.a(doprnt_fF.eo)
                              c:/program files (x86)/microchip/mplabc32/v2.02/bin/../lib/gcc/pic32mx/4.5.1/../../../../pic32mx/lib\libc.a(sprintf_fF.eo) (_vfprintf_fF)
c:/program files (x86)/microchip/mplabc32/v2.02/bin/../lib/gcc/pic32mx/4.5.1/../../../../pic32mx/lib\libc.a(doprnt_s.eo)
                              c:/program files (x86)/microchip/mplabc32/v2.02/bin/../lib/gcc/pic32mx/4.5.1/../../../../pic32mx/lib\libc.a(sprintf_s.eo) (_vfprintf_s)
c:/program files (x86)/microchip/mplabc32/v2.02/bin/../lib/gcc/pic32mx/4.5.1/../../../../pic32mx/lib\libc.a(_fputc_simple.o)
                              c:/program files (x86)/microchip/mplabc32/v2.02/bin/../lib/gcc/pic32mx/4.5.1/../../../../pic32mx/lib\libc.a(doprnt_cdfFnopsuxX.eo) (fputc)
c:/program files (x86)/microchip/mplabc32/v2.02/bin/../lib/gcc/pic32mx/4.5.1/../../../../pic32mx/lib\libc.a(powers.o)
                              c:/program files (x86)/microchip/mplabc32/v2.02/bin/../lib/gcc/pic32mx/4.5.1/../../../../pic32mx/lib\libc.a(doprnt_cdfFnopsuxX.eo) (_powers_f)
c:/program files (x86)/microchip/mplabc32/v2.02/bin/../lib/gcc/pic32mx/4.5.1/../../../../pic32mx/lib\libc.a(write.o)
                              c:/program files (x86)/microchip/mplabc32/v2.02/bin/../lib/gcc/pic32mx/4.5.1/../../../../pic32mx/lib\libc.a(_fputc_simple.o) (write)
c:/program files (x86)/microchip/mplabc32/v2.02/bin/../lib/gcc/pic32mx/4.5.1/../../../../pic32mx/lib\libc.a(_iob.o)
                              c:/program files (x86)/microchip/mplabc32/v2.02/bin/../lib/gcc/pic32mx/4.5.1/../../../../pic32mx/lib\libc.a(_fputc_simple.o) (_outdone)
c:/program files (x86)/microchip/mplabc32/v2.02/bin/../lib/gcc/pic32mx/4.5.1/../../../../pic32mx/lib\libc.a(_flsbuf_simple.o)
                              c:/program files (x86)/microchip/mplabc32/v2.02/bin/../lib/gcc/pic32mx/4.5.1/../../../../pic32mx/lib\libc.a(_fputc_simple.o) (_flsbuf)
c:/program files (x86)/microchip/mplabc32/v2.02/bin/../lib/gcc/pic32mx/4.5.1/../../../../pic32mx/lib\libc.a(_mon_putc.o)
                              c:/program files (x86)/microchip/mplabc32/v2.02/bin/../lib/gcc/pic32mx/4.5.1/../../../../pic32mx/lib\libc.a(write.o) (_mon_putc)
c:/program files (x86)/microchip/mplabc32/v2.02/bin/../lib/gcc/pic32mx/4.5.1/../../../../pic32mx/lib\libc.a(c32_uart.o)
                              c:/program files (x86)/microchip/mplabc32/v2.02/bin/../lib/gcc/pic32mx/4.5.1/../../../../pic32mx/lib\libc.a(_mon_putc.o) (__C32_UART)
c:/program files (x86)/microchip/mplabc32/v2.02/bin/../lib/gcc/pic32mx/4.5.1/../../../../pic32mx/lib\libm.a(fpmod32.o)
                              c:/program files (x86)/microchip/mplabc32/v2.02/bin/../lib/gcc/pic32mx/4.5.1/../../../../pic32mx/lib\libc.a(doprnt_cdfFnopsuxX.eo) (frexpf)
c:/program files (x86)/microchip/mplabc32/v2.02/bin/../lib/gcc/pic32mx/4.5.1/../../../../pic32mx/lib\libm.a(dp32.o)
                              build/default/production/src/gsm.o (dpadd)
c:/program files (x86)/microchip/mplabc32/v2.02/bin/../lib/gcc/pic32mx/4.5.1/../../../../pic32mx/lib\libm.a(w_sqrtf.o)
                              build/default/production/src/anatype.o (sqrtf)
c:/program files (x86)/microchip/mplabc32/v2.02/bin/../lib/gcc/pic32mx/4.5.1/../../../../pic32mx/lib\libm.a(fp32.o)
                              build/default/production/src/ads7846.o (fpsub)
c:/program files (x86)/microchip/mplabc32/v2.02/bin/../lib/gcc/pic32mx/4.5.1/../../../../pic32mx/lib\libm.a(s_lib_ver.o)
                              c:/program files (x86)/microchip/mplabc32/v2.02/bin/../lib/gcc/pic32mx/4.5.1/../../../../pic32mx/lib\libm.a(w_sqrtf.o) (math_errhandling)
c:/program files (x86)/microchip/mplabc32/v2.02/bin/../lib/gcc/pic32mx/4.5.1/../../../../pic32mx/lib\libm.a(fpsqrt32.o)
                              c:/program files (x86)/microchip/mplabc32/v2.02/bin/../lib/gcc/pic32mx/4.5.1/../../../../pic32mx/lib\libm.a(w_sqrtf.o) (__mchp_sqrtf)
c:/program files (x86)/microchip/mplabc32/v2.02/bin/../lib/gcc/pic32mx/4.5.1/../../../../pic32mx/lib\libe.a(_floatdisf.o)
                              c:/program files (x86)/microchip/mplabc32/v2.02/bin/../lib/gcc/pic32mx/4.5.1/../../../../pic32mx/lib\libc.a(doprnt_cdfFnopsuxX.eo) (__floatdisf)
c:/program files (x86)/microchip/mplabc32/v2.02/bin/../lib/gcc/pic32mx/4.5.1/../../../../pic32mx/lib\libe.a(_strtod.o)
                              c:/program files (x86)/microchip/mplabc32/v2.02/bin/../lib/gcc/pic32mx/4.5.1/../../../../pic32mx/lib\libc.a(strtod.o) (__strtod)
c:/program files (x86)/microchip/mplabc32/v2.02/bin/../lib/gcc/pic32mx/4.5.1/../../../../pic32mx/lib\libe.a(_ldexp.o)
                              c:/program files (x86)/microchip/mplabc32/v2.02/bin/../lib/gcc/pic32mx/4.5.1/../../../../pic32mx/lib\libe.a(_strtod.o) (__ldexp)
c:/program files (x86)/microchip/mplabc32/v2.02/bin/../lib/gcc/pic32mx/4.5.1/../../../../pic32mx/lib\libmchp_peripheral_32MX795F512L.a(soft_reset_lib.o)
                              build/default/production/src/exceptions.o (SoftReset)
c:/program files (x86)/microchip/mplabc32/v2.02/bin/../lib/gcc/pic32mx/4.5.1/../../../../pic32mx/lib\libmchp_peripheral_32MX795F512L.a(pcache.o)
                              build/default/production/src/main.o (CheKseg0CacheOn)
c:/program files (x86)/microchip/mplabc32/v2.02/bin/../lib/gcc/pic32mx/4.5.1/../../../../pic32mx/lib\libmchp_peripheral_32MX795F512L.a(osc_config_lib.o)
                              build/default/production/src/main.o (OSCConfig)
c:/program files (x86)/microchip/mplabc32/v2.02/bin/../lib/gcc/pic32mx/4.5.1/../../../../pic32mx/lib\libmchp_peripheral_32MX795F512L.a(int_disable_interrupts_lib.o)
                              build/default/production/src/main.o (INTDisableInterrupts)
c:/program files (x86)/microchip/mplabc32/v2.02/bin/../lib/gcc/pic32mx/4.5.1/../../../../pic32mx/lib\libmchp_peripheral_32MX795F512L.a(int_restore_interrupts_lib.o)
                              build/default/production/src/main.o (INTRestoreInterrupts)
c:/program files (x86)/microchip/mplabc32/v2.02/bin/../lib/gcc/pic32mx/4.5.1/../../../../pic32mx/lib\libmchp_peripheral_32MX795F512L.a(int_enable_mv_int_lib.o)
                              build/default/production/src/main.o (INTEnableSystemMultiVectoredInt)
c:/program files (x86)/microchip/mplabc32/v2.02/bin/../lib/gcc/pic32mx/4.5.1/../../../../pic32mx/lib\libmchp_peripheral_32MX795F512L.a(int_tbl_lib.o)
                              build/default/production/src/tor.o (INTClearFlag)
c:/program files (x86)/microchip/mplabc32/v2.02/bin/../lib/gcc/pic32mx/4.5.1/../../../../pic32mx/lib\libmchp_peripheral_32MX795F512L.a(spi_chn_open_lib.o)
                              build/default/production/src/ads7846.o (SpiChnOpen)
c:/program files (x86)/microchip/mplabc32/v2.02/bin/../lib/gcc/pic32mx/4.5.1/../../../../pic32mx/lib\libmchp_peripheral_32MX795F512L.a(spi_io_tbl_libp.o)
                              c:/program files (x86)/microchip/mplabc32/v2.02/bin/../lib/gcc/pic32mx/4.5.1/../../../../pic32mx/lib\libmchp_peripheral_32MX795F512L.a(spi_chn_open_lib.o) (_SpiIoTbl)
c:/program files (x86)/microchip/mplabc32/v2.02/bin/../lib/gcc/pic32mx/4.5.1/../../../../pic32mx/lib\libmchp_peripheral_32MX795F512L.a(spi_map_tbl_libp.o)
                              c:/program files (x86)/microchip/mplabc32/v2.02/bin/../lib/gcc/pic32mx/4.5.1/../../../../pic32mx/lib\libmchp_peripheral_32MX795F512L.a(spi_chn_open_lib.o) (_SpiMapTbl)
c:/program files (x86)/microchip/mplabc32/v2.02/bin/../lib/gcc/pic32mx/4.5.1/../../../../pic32mx/lib\libmchp_peripheral_32MX795F512L.a(nvm_erase_page_lib.o)
                              build/default/production/src/config.o (NVMErasePage)
c:/program files (x86)/microchip/mplabc32/v2.02/bin/../lib/gcc/pic32mx/4.5.1/../../../../pic32mx/lib\libmchp_peripheral_32MX795F512L.a(nvm_operation_lib.o)
                              c:/program files (x86)/microchip/mplabc32/v2.02/bin/../lib/gcc/pic32mx/4.5.1/../../../../pic32mx/lib\libmchp_peripheral_32MX795F512L.a(nvm_erase_page_lib.o) (_NVMOperation)
c:/program files (x86)/microchip/mplabc32/v2.02/bin/../lib/gcc/pic32mx/4.5.1/../../../../pic32mx/lib\libmchp_peripheral_32MX795F512L.a(nvm_write_row_lib.o)
                              build/default/production/src/config.o (NVMWriteRow)
c:/program files (x86)/microchip/mplabc32/v2.02/bin/../lib/gcc/pic32mx/4.5.1/../../../../pic32mx/lib\libmchp_peripheral_32MX795F512L.a(port_set_pins_digital_in_lib.o)
                              c:/program files (x86)/microchip/mplabc32/v2.02/bin/../lib/gcc/pic32mx/4.5.1/../../../../pic32mx/lib\libmchp_peripheral_32MX795F512L.a(spi_chn_open_lib.o) (PORTSetPinsDigitalIn)
c:/program files (x86)/microchip/mplabc32/v2.02/bin/../lib/gcc/pic32mx/4.5.1/../../../../pic32mx/lib\libmchp_peripheral_32MX795F512L.a(port_set_pins_digital_out_lib.o)
                              c:/program files (x86)/microchip/mplabc32/v2.02/bin/../lib/gcc/pic32mx/4.5.1/../../../../pic32mx/lib\libmchp_peripheral_32MX795F512L.a(spi_chn_open_lib.o) (PORTSetPinsDigitalOut)
c:/program files (x86)/microchip/mplabc32/v2.02/bin/../lib/gcc/pic32mx/4.5.1/../../../../pic32mx/lib\libmchp_peripheral_32MX795F512L.a(_ports_tbl_libp.o)
                              c:/program files (x86)/microchip/mplabc32/v2.02/bin/../lib/gcc/pic32mx/4.5.1/../../../../pic32mx/lib\libmchp_peripheral_32MX795F512L.a(port_set_pins_digital_in_lib.o) (PortRegTbl)
c:/program files (x86)/microchip/mplabc32/v2.02/bin/../lib/gcc/pic32mx/4.5.1/../../../../pic32mx/lib\libmchp_peripheral_32MX795F512L.a(uart_lib.o)
                              build/default/production/src/uart.o (UARTEnable)
c:/program files (x86)/microchip/mplabc32/v2.02/bin/../lib/gcc/pic32mx/4.5.1/../../../../pic32mx/lib\libmchp_peripheral_32MX795F512L.a(int_enable_interrupts_lib.o)
                              c:/program files (x86)/microchip/mplabc32/v2.02/bin/../lib/gcc/pic32mx/4.5.1/../../../../pic32mx/lib\libmchp_peripheral_32MX795F512L.a(int_enable_mv_int_lib.o) (INTEnableInterrupts)
c:/program files (x86)/microchip/mplabc32/v2.02/bin/../lib/gcc/pic32mx/4.5.1/../../../../pic32mx/lib\libc.a(errno.o)
                              c:/program files (x86)/microchip/mplabc32/v2.02/bin/../lib/gcc/pic32mx/4.5.1/../../../../pic32mx/lib\libm.a(w_sqrtf.o) (errno)
c:/program files (x86)/microchip/mplabc32/v2.02/bin/../lib/gcc/pic32mx/4.5.1\libgcc.a(_lshrdi3.o)
                              c:/program files (x86)/microchip/mplabc32/v2.02/bin/../lib/gcc/pic32mx/4.5.1/../../../../pic32mx/lib\libe.a(_ldexp.o) (__lshrdi3)
c:/program files (x86)/microchip/mplabc32/v2.02/bin/../lib/gcc/pic32mx/4.5.1\libgcc.a(_ashldi3.o)
                              c:/program files (x86)/microchip/mplabc32/v2.02/bin/../lib/gcc/pic32mx/4.5.1/../../../../pic32mx/lib\libe.a(_ldexp.o) (__ashldi3)
c:/program files (x86)/microchip/mplabc32/v2.02/bin/../lib/gcc/pic32mx/4.5.1\libgcc.a(_floatundisf.o)
                              c:/program files (x86)/microchip/mplabc32/v2.02/bin/../lib/gcc/pic32mx/4.5.1/../../../../pic32mx/lib\libc.a(doprnt_cdfFnopsuxX.eo) (__floatundisf)
c:/program files (x86)/microchip/mplabc32/v2.02/bin/../lib/gcc/pic32mx/4.5.1\libgcc.a(_udivdi3.o)
                              c:/program files (x86)/microchip/mplabc32/v2.02/bin/../lib/gcc/pic32mx/4.5.1/../../../../pic32mx/lib\libc.a(doprnt_cdfFnopsuxX.eo) (__udivdi3)
c:/program files (x86)/microchip/mplabc32/v2.02/bin/../lib/gcc/pic32mx/4.5.1\libgcc.a(_umoddi3.o)
                              c:/program files (x86)/microchip/mplabc32/v2.02/bin/../lib/gcc/pic32mx/4.5.1/../../../../pic32mx/lib\libc.a(doprnt_cdfFnopsuxX.eo) (__umoddi3)

Allocating common symbols
Common symbol       size              file

gsm_pMsgAlarmeToSend
                    0x4               build/default/production/src/gsm.o
gsm_AddresseSaveRamEnvoi
                    0x4               build/default/production/src/gsm.o
can_OCtet2flags     0x4               build/default/production/src/can.o
tor_NbrImp          0x10              build/default/production/src/tor.o
graphics_cursorX    0x2               build/default/production/src/graphics.o
bitmtrxsbusuart     0xc               build/default/production/src/mtrxsbus.o
gsm_aMsgEntrant     0x4               build/default/production/src/gsm.o
gsm_pParametre      0x4               build/default/production/src/gsm.o
slv_AdresseBuf      0x100             build/default/production/src/slvxsbus.o
Rt                  0x4               build/default/production/src/ads7846.o
Uart1_AdresseFin    0x4               build/default/production/src/slvxsbus.o
comsbusmaitre_Uart  0x1               build/default/production/src/comsbusmaitre.o
gsm_FormatHistoRam  0x14              build/default/production/src/gsm.o
gsm_UDPNumIP        0x1               build/default/production/src/gsm.o
comsbusmaitre_SbusBuffer
                    0x1800            build/default/production/src/comsbusmaitre.o
tor_TempsMaxEntreImp
                    0x10              build/default/production/src/tor.o
gsm_DataVarUDP      0x4               build/default/production/src/gsm.o
gsm_aMsgAlarme      0x4               build/default/production/src/gsm.o
gsm_MAEHistoRam     0x4               build/default/production/src/gsm.o
gsm_IndexEnvoiUDPH  0x4               build/default/production/src/gsm.o
gsm_UDPCptBit       0x4               build/default/production/src/gsm.o
gsm_DataAlarme      0x8               build/default/production/src/gsm.o
historique_bit      0xc               build/default/production/src/historique.o
gsm_MessageSMS      0xa2              build/default/production/src/gsm.o
Msg                 0x6               build/default/production/src/terminal.o
gsm_MAEUDPR         0x1               build/default/production/src/gsm.o
graphics_fontFirstChar
                    0x2               build/default/production/src/graphics.o
clock_min           0x4               build/default/production/src/clock.o
err_code            0x1               build/default/production/src/clock.o
tor_MAESortie       0xc               build/default/production/src/tor.o
comsbusmaitre_SbusAdresse
                    0x300             build/default/production/src/comsbusmaitre.o
gsmplus_aMsgAlarmePeriphe
                    0x4               build/default/production/src/gsm+.o
gsm_TelephoneUser   0x10              build/default/production/src/gsm.o
gsm_aInitCfgSaveRam
                    0x4               build/default/production/src/gsm.o
gsm_aHommetMort     0x4               build/default/production/src/gsm.o
gsm_aSMSAlarme      0x4               build/default/production/src/gsm.o
comsbusmaitre_SbusNbr
                    0x3               build/default/production/src/comsbusmaitre.o
gsm_CptVarUDP       0x4               build/default/production/src/gsm.o
gsm_AlarmeOk        0x8               build/default/production/src/gsm.o
gsm_MAESMSEntrant   0x1               build/default/production/src/gsm.o
gsm_MAE             0x1               build/default/production/src/gsm.o
gsm_QualiteReseau   0x1               build/default/production/src/gsm.o
CptRepetition       0x4               build/default/production/src/relais.o
FifoAn              0x3c0             build/default/production/src/main.o
gsm_NbrVarRapport   0x1               build/default/production/src/gsm.o
gsm_aInitCfgAlrmeEntree
                    0x4               build/default/production/src/gsm.o
BitMCEGLBit         0x4               build/default/production/src/eauglycolee.o
gsm_MAEDateHeure    0x1               build/default/production/src/gsm.o
clock_mon           0x4               build/default/production/src/clock.o
gsm_aUDPRPort       0x4               build/default/production/src/gsm.o
FifoETor            0xa0              build/default/production/src/main.o
gsm_aUDPCfg         0x4               build/default/production/src/gsm.o
mtrxsbusuart        0x324             build/default/production/src/mtrxsbus.o
tor_CptIt           0x10              build/default/production/src/tor.o
timers2_Tick        0x1               build/default/production/src/timers.o
comsbusmaitre_bit   0xc               build/default/production/src/comsbusmaitre.o
gsm_SonneAvantEnvoiSMS
                    0x4               build/default/production/src/gsm.o
gsmplus_MAEAlarmePeriphe
                    0x1               build/default/production/src/gsm+.o
graphics_cursorY    0x2               build/default/production/src/graphics.o
config_Mem          0x1000            build/default/production/src/config.o
slvbit              0x4               build/default/production/src/slvxsbus.o
gsmplus_aCfgAlrmePeriphe
                    0x4               build/default/production/src/gsm+.o
gsm_aMsgSortantL    0x4               build/default/production/src/gsm.o
gsm_CptRegHistoRam  0x1               build/default/production/src/gsm.o
gsm_MAEInitPwr      0x1               build/default/production/src/gsm.o
gsm_ChaineTemps     0xa2              build/default/production/src/gsm.o
clock_mday          0x4               build/default/production/src/clock.o
gsm_aUser           0x4               build/default/production/src/gsm.o
gsm_aPW             0x4               build/default/production/src/gsm.o
gsm_aAPN            0x4               build/default/production/src/gsm.o
gsm_aInitCfgAlrmeAna
                    0x4               build/default/production/src/gsm.o
gsm_InfoHisto       0x4               build/default/production/src/gsm.o
gsm_IndiceTeleAlarme
                    0x1               build/default/production/src/gsm.o
gsm_TelephoneSMS    0x10              build/default/production/src/gsm.o
historique_AddresseSave
                    0xc               build/default/production/src/historique.o
gsm_TelephoneAppel  0x10              build/default/production/src/gsm.o
gsm_ReponseSMS      0xa2              build/default/production/src/gsm.o
gEtatApp            0x4               build/default/production/src/main.o
Timers              0x1000            build/default/production/src/variables.o
clock_wday          0x4               build/default/production/src/clock.o
gsm_Chaine          0x100             build/default/production/src/gsm.o
gsm_MAESbus         0x1               build/default/production/src/gsm.o
gsm_GPRSData        0x400             build/default/production/src/gsm.o
gsm_NbrVarUDP       0x1               build/default/production/src/gsm.o
gsm_aInitCfgSave    0x4               build/default/production/src/gsm.o
gsm_MAETraittementSMS
                    0x1               build/default/production/src/gsm.o
regflag_i           0x4               build/default/production/src/variables.o
Uart1_AdresseDebut  0x4               build/default/production/src/slvxsbus.o
graphics_fontLastChar
                    0x2               build/default/production/src/graphics.o
clock_sec           0x4               build/default/production/src/clock.o
gsm_aMsgRapport     0x4               build/default/production/src/gsm.o
s1d13700_MemImage   0x2580            build/default/production/src/s1d13700.o
comsbusmaitre_SbusStation
                    0x3               build/default/production/src/comsbusmaitre.o
Sec_DemandeEcriture
                    0x4               build/default/production/src/secteur.o
s1d13700_EtatMemImage
                    0x4b0             build/default/production/src/s1d13700.o
s1d13700_color      0x2               build/default/production/src/s1d13700.o
gsm_UDPCptOctet     0x4               build/default/production/src/gsm.o
gsmplus_CfgAlrmePeriphe
                    0x4               build/default/production/src/gsm+.o
gsm_MAECondEnvoiUDPR
                    0x4               build/default/production/src/gsm.o
gsm_GPRSCnxNum      0x4               build/default/production/src/gsm.o
gsm_aSMSRapport     0x4               build/default/production/src/gsm.o
gsm_HommetMort      0x4               build/default/production/src/gsm.o
slvxsbus_Buffer     0x400             build/default/production/src/slvxsbus.o
tor_CurVal          0x10              build/default/production/src/tor.o
Echant_TabFiltre    0x8               build/default/production/src/kalman.o
CptSorties          0x4               build/default/production/src/relais.o
affEtat             0x1               build/default/production/src/ads7846.o
comsbusmaitre_UartMode
                    0x3               build/default/production/src/comsbusmaitre.o
gsm_aMsgSortantE    0x4               build/default/production/src/gsm.o
ETor                0x80              build/default/production/src/main.o
graphics_font       0x4               build/default/production/src/graphics.o
bitvariable         0x4               build/default/production/src/variables.o
err_flg             0x1               build/default/production/src/rtc.o
gsm_aTCPPort        0x4               build/default/production/src/gsm.o
comsbusmaitre_SbusType
                    0x3               build/default/production/src/comsbusmaitre.o
gsm_aSonneAvantEnvoiSMS
                    0x4               build/default/production/src/gsm.o
gsm_aNumTelephone   0x10              build/default/production/src/gsm.o
gsm_CptNbrLineRapport
                    0x1               build/default/production/src/gsm.o
gsm_MemoirRam       0x1000            build/default/production/src/gsm.o
gsm_aUDPHPort       0x4               build/default/production/src/gsm.o
gsm_aTOSKT          0x4               build/default/production/src/gsm.o
trmbit              0x4               build/default/production/src/terminal.o
gsm_CptConfig       0x1               build/default/production/src/gsm.o
gsm_aNomEntree      0x4               build/default/production/src/gsm.o
gsm_aNomSortie      0x4               build/default/production/src/gsm.o
gsm_OldEtatFrqEnvoiUDPR
                    0x4               build/default/production/src/gsm.o
gsm_MAERapport      0x1               build/default/production/src/gsm.o
gsm_aInitAlarme     0x4               build/default/production/src/gsm.o
clock_isdst         0x4               build/default/production/src/clock.o
tor_TempsMinEntreImp
                    0x10              build/default/production/src/tor.o
temp                0x1               build/default/production/src/s1d13700.o
clock_yday          0x4               build/default/production/src/clock.o
bitclock            0x4               build/default/production/src/clock.o
tor_CnsgNImp        0x10              build/default/production/src/tor.o
clock_year          0x4               build/default/production/src/clock.o
gsm_aInitSMSRapport
                    0x4               build/default/production/src/gsm.o
gsm_aAdresseIP      0x10              build/default/production/src/gsm.o
gUart2Mode          0x1               build/default/production/src/main.o
gsm_BufferTCPUDP    0x600             build/default/production/src/gsm.o
Compteurs           0x40              build/default/production/src/variables.o
graphics_fontOrientation
                    0x1               build/default/production/src/graphics.o
gsm_MemoirPaquet    0x80              build/default/production/src/gsm.o
gsm_CptAlarme       0x1               build/default/production/src/gsm.o
gsm_IndexTeleRapport
                    0x1               build/default/production/src/gsm.o
gsm_NbrEssaiEnvoi   0x1               build/default/production/src/gsm.o
gsm_aInitSMSEntrant
                    0x4               build/default/production/src/gsm.o
gsm_AddresseSaveRamFlash
                    0x4               build/default/production/src/gsm.o
gUart1Mode          0x1               build/default/production/src/main.o
Ana                 0x300             build/default/production/src/main.o
gsmplus_AlarmePeripheEntreeEtat
                    0x2               build/default/production/src/gsm+.o
gsm_aNomStation     0x4               build/default/production/src/gsm.o
gsm_TailleTrame     0x4               build/default/production/src/gsm.o
gsm_CptNbrVarRapport
                    0x1               build/default/production/src/gsm.o
gsm_NbrRegSaveRAMUDPH
                    0x4               build/default/production/src/gsm.o
historique_DataSave
                    0xf0              build/default/production/src/historique.o
gsm_LastIndexEnvoiUDPH
                    0x4               build/default/production/src/gsm.o
comsbusmaitre_TOReponse
                    0x6               build/default/production/src/comsbusmaitre.o
comsbusmaitre_MAESbusMaitre
                    0x3               build/default/production/src/comsbusmaitre.o
gsm_CptVarHistoRam  0x1               build/default/production/src/gsm.o
gsm_MAERequette     0x1               build/default/production/src/gsm.o
gsm_InfoSMSEntrant  0x14              build/default/production/src/gsm.o
gsm_NbrSMSEntrant   0x1               build/default/production/src/gsm.o
gsm_NbrRegSaveSecUDPH
                    0x4               build/default/production/src/gsm.o
gsm_IndiceTeleUser  0x1               build/default/production/src/gsm.o
graphics_fontHeight
                    0x2               build/default/production/src/graphics.o
Sec_Image           0x4000            build/default/production/src/secteur.o
gsm_MAEInitCfg      0x1               build/default/production/src/gsm.o
Flags               0x180             build/default/production/src/variables.o
sbusoctetflags      0x4               build/default/production/src/slvxsbus.o
torbit              0x4               build/default/production/src/tor.o
canbit              0x4               build/default/production/src/can.o
Clock_OldDateHeure  0x4               build/default/production/src/clock.o
gsm_GPRSDataNbr     0x4               build/default/production/src/gsm.o
gsm_MAEInit         0x1               build/default/production/src/gsm.o
gsm_aNomAna         0x4               build/default/production/src/gsm.o
gsm_InfoHistoRam    0x4               build/default/production/src/gsm.o
gsm_MAEAlarme       0x1               build/default/production/src/gsm.o
gsm_NumMessage      0x2               build/default/production/src/gsm.o
gsm_TrameSIM32      0x100             build/default/production/src/gsm.o
gsm_AddresseSaveRam
                    0x4               build/default/production/src/gsm.o
Registres           0x3000            build/default/production/src/variables.o
comsbusmaitre_SbusRq
                    0x3               build/default/production/src/comsbusmaitre.o
gsm_DataVarRapport  0x14              build/default/production/src/gsm.o
clock_Lastdt        0x4               build/default/production/src/clock.o
gsm_CptVitesse      0x1               build/default/production/src/gsm.o
gsm_aSMSEntrant     0x4               build/default/production/src/gsm.o
uartbit             0x4               build/default/production/src/uart.o
gSysEtat            0x1               build/default/production/src/main.o
SecteurpParam       0x14              build/default/production/src/main.o
gsm_CptSMSEntrant   0x1               build/default/production/src/gsm.o
clock_hour          0x4               build/default/production/src/clock.o
gsm_NbrSMSRapport   0x1               build/default/production/src/gsm.o
gsm_aInitEntetAlarme
                    0x4               build/default/production/src/gsm.o
gsm_EntetAlarme     0x4               build/default/production/src/gsm.o
gsm_NbrSaveRAM      0x4               build/default/production/src/gsm.o
comsbusmaitre_SbusErrCom
                    0x3               build/default/production/src/comsbusmaitre.o
EtatCompteurs       0x4               build/default/production/src/variables.o
Sec_pParam          0x4               build/default/production/src/secteur.o
gsm_NbrAlarme       0x1               build/default/production/src/gsm.o
graphics_lineThickness
                    0x1               build/default/production/src/graphics.o
tor_TempsEchant     0x10              build/default/production/src/tor.o
gNumStation         0x1               build/default/production/src/main.o
gsm_MAESaveH        0x1               build/default/production/src/gsm.o
OctetToFlags        0x4               build/default/production/src/variables.o
gsm_pCommande       0x4               build/default/production/src/gsm.o
graphics_LineType   0x2               build/default/production/src/graphics.o
gsm_aInitUDPCfg     0x4               build/default/production/src/gsm.o
gsmplus_AlarmePeripheAnaEtat
                    0x2               build/default/production/src/gsm+.o
gsm_NumAlarme       0x1               build/default/production/src/gsm.o
mainbit             0x4               build/default/production/src/main.o
gsm_NombreErreur    0x1               build/default/production/src/gsm.o
gsm_NbrSaveRAMUDPH  0x4               build/default/production/src/gsm.o
gsm_pMsgUserToSend  0x4               build/default/production/src/gsm.o
gsm_MAECmd          0x1               build/default/production/src/gsm.o
gsmbit              0x4               build/default/production/src/gsm.o
uLongFloat          0x4               build/default/production/src/variables.o
gsm_NumSocket       0x4               build/default/production/src/gsm.o
Sec_pImageFlag      0x10              build/default/production/src/secteur.o
gsm_NbrVarSaveRam   0x1               build/default/production/src/gsm.o
gsm_aCfgSaveRam     0x4               build/default/production/src/gsm.o
gsm_UDPPort         0x2               build/default/production/src/gsm.o
terminal_Chaine     0x200             build/default/production/src/terminal.o
gsm_NombreReset     0x1               build/default/production/src/gsm.o
timer4_TV           0x20              build/default/production/src/timers.o

Microchip PIC32 Memory-Usage Report

kseg0 Program-Memory Usage
section                    address  length [bytes]      (dec)  Description
-------                 ----------  -------------------------  -----------
.rodata                 0x9d000000           0x48          72  Read-only const 
.text                   0x9d000050         0x8db8       36280  App's exec code 
.rodata                 0x9d008e08         0x6e04       28164  Read-only const 
.text                   0x9d00fc0c         0xb798       47000  App's exec code 
.text._vfprintf_cdfFnop 0x9d01b3a4         0x13a0        5024   
.text                   0x9d01c744         0x3958       14680  App's exec code 
.rodata                 0x9d02009c         0x1250        4688  Read-only const 
.text                   0x9d0212ec         0x24cc        9420  App's exec code 
.rodata                 0x9d0237b8          0x9bc        2492  Read-only const 
.text                   0x9d024174          0x8ec        2284  App's exec code 
.rodata                 0x9d024a60          0x7d4        2004  Read-only const 
.text                   0x9d025234         0x21c8        8648  App's exec code 
.dinit                  0x9d0273fc          0x468        1128   
.text                   0x9d027864          0x884        2180  App's exec code 
.text.__strtod          0x9d0280e8          0x3f0        1008   
.text                   0x9d0284d8          0xb98        2968  App's exec code 
.text.asctime           0x9d029070          0x2f0         752   
.text.gmtime            0x9d029360          0x2ac         684   
.text                   0x9d02960c          0x2a0         672  App's exec code 
.text.scale             0x9d0298ac          0x260         608   
.text                   0x9d029b0c          0x480        1152  App's exec code 
.text.__floatdisf       0x9d029f8c          0x214         532   
.rodata                 0x9d02a1a0          0x200         512  Read-only const 
.text                   0x9d02a3a0          0x1e8         488  App's exec code 
.text.__ldexp           0x9d02a588          0x1d4         468   
.text                   0x9d02a75c          0x5d8        1496  App's exec code 
.text.OSCConfig         0x9d02ad34          0x168         360   
.text.mktime            0x9d02ae9c          0x150         336   
.text.SpiChnOpen        0x9d02afec          0x150         336   
.text.fputc             0x9d02b13c          0x140         320   
.text._flsbuf           0x9d02b27c          0x12c         300   
.text                   0x9d02b3a8          0x240         576  App's exec code 
.text.xtoi              0x9d02b5e8          0x120         288   
.text._NVMOperation     0x9d02b708          0x114         276   
.rodata                 0x9d02b81c          0x210         528  Read-only const 
.text.strtok            0x9d02ba2c           0xf0         240   
.text.ymd_to_scalar     0x9d02bb1c           0xec         236   
.rodata                 0x9d02bc08           0xe0         224  Read-only const 
.text                   0x9d02bce8           0xd4         212  App's exec code 
.text.general_exception 0x9d02bdbc           0xd0         208   
.text._mon_putc         0x9d02be8c           0xb4         180   
.text                   0x9d02bf40           0xa8         168  App's exec code 
.text.atoi              0x9d02bfe8           0xa4         164   
.text.atol              0x9d02c08c           0xa4         164   
.text.strstr            0x9d02c130           0xa4         164   
.rodata                 0x9d02c1d4           0xa0         160  Read-only const 
.text.write             0x9d02c274           0x88         136   
.text.UARTEnable        0x9d02c2fc           0x80         128   
.text.SoftReset         0x9d02c37c           0x78         120   
.text.strncmp           0x9d02c3f4           0x70         112   
.text.strcspn           0x9d02c464           0x6c         108   
.text.strspn            0x9d02c4d0           0x6c         108   
.text._sprintf_cdfFnops 0x9d02c53c           0x68         104   
.rodata                 0x9d02c5a4           0x68         104  Read-only const 
.text.strncat           0x9d02c60c           0x64         100   
.text.strncpy           0x9d02c670           0x64         100   
.text.UARTSetDataRate   0x9d02c6d4           0x5c          92   
.text.INTEnable         0x9d02c730           0x58          88   
.rodata                 0x9d02c788           0xa4         164  Read-only const 
.text                   0x9d02c82c           0x4c          76  App's exec code 
.rodata                 0x9d02c878           0x4c          76  Read-only const 
.text.sqrtf             0x9d02c8c4           0x4c          76   
.text                   0x9d02c910           0x88         136  App's exec code 
.text.PORTSetPinsDigita 0x9d02c998           0x40          64   
.text.PORTSetPinsDigita 0x9d02c9d8           0x40          64   
.text.UARTGetDataRate   0x9d02ca18           0x40          64   
.text.localtime         0x9d02ca58           0x3c          60   
.text.INTSetVectorPrior 0x9d02ca94           0x3c          60   
.text.INTSetVectorSubPr 0x9d02cad0           0x3c          60   
.text.UARTConfigure     0x9d02cb0c           0x3c          60   
.text.UARTSetAddress    0x9d02cb48           0x3c          60   
.text                   0x9d02cb84           0x38          56  App's exec code 
.text.strcat            0x9d02cbbc           0x38          56   
.text.NVMWriteRow       0x9d02cbf4           0x38          56   
.text.UARTWatchForAddre 0x9d02cc2c           0x38          56   
.text.INTEnableSystemMu 0x9d02cc64           0x34          52   
.text.INTGetVectorPrior 0x9d02cc98           0x30          48   
.text.INTGetVectorSubPr 0x9d02ccc8           0x30          48   
.text.INTClearFlag      0x9d02ccf8           0x2c          44   
.text.INTSetFlag        0x9d02cd24           0x2c          44   
.text.INTGetFlag        0x9d02cd50           0x2c          44   
.text.INTGetEnable      0x9d02cd7c           0x2c          44   
.text.NVMErasePage      0x9d02cda8           0x2c          44   
.text.strchr            0x9d02cdd4           0x28          40   
.text.atof              0x9d02cdfc           0x28          40   
.text.UARTSetFifoMode   0x9d02ce24           0x28          40   
.text.UARTSetLineContro 0x9d02ce4c           0x28          40   
.text.tolower           0x9d02ce74           0x24          36   
.text.toupper           0x9d02ce98           0x24          36   
.text.ctime             0x9d02cebc           0x20          32   
.text.strtod            0x9d02cedc           0x1c          28   
.text._dstrtod          0x9d02cef8           0x1c          28   
.text.INTRestoreInterru 0x9d02cf14           0x1c          28   
.rodata                 0x9d02cf30           0x18          24  Read-only const 
.text.isalnum           0x9d02cf48           0x18          24   
.text.isalpha           0x9d02cf60           0x18          24   
.text.iscntrl           0x9d02cf78           0x18          24   
.text.isdigit           0x9d02cf90           0x18          24   
.text.isgraph           0x9d02cfa8           0x18          24   
.text.islower           0x9d02cfc0           0x18          24   
.text.isprint           0x9d02cfd8           0x18          24   
.text.ispunct           0x9d02cff0           0x18          24   
.text.isspace           0x9d02d008           0x18          24   
.text.isupper           0x9d02d020           0x18          24   
.text.isxdigit          0x9d02d038           0x18          24   
.text                   0x9d02d050           0x18          24  App's exec code 
.text.CheKseg0CacheOff  0x9d02d068           0x18          24   
.text.CheKseg0CacheOn   0x9d02d080           0x18          24   
.rodata                 0x9d02d098           0x2c          44  Read-only const 
.text                   0x9d02d0c4           0x10          16  App's exec code 
.rodata                 0x9d02d0d4           0x10          16  Read-only const 
.text                   0x9d02d0e4           0x10          16  App's exec code 
.rodata                 0x9d02d0f4            0x4           4  Read-only const 
.rodata                 0x9d02d0f8           0x1c          28  Read-only const 
.text._bootstrap_except 0x9d02d114            0xc          12   
.rodata                 0x9d02d120            0x8           8  Read-only const 
.text.isascii           0x9d02d128            0x8           8   
.text.toascii           0x9d02d130            0x8           8   
.text._tolower          0x9d02d138            0x8           8   
.text._toupper          0x9d02d140            0x8           8   
.text._on_reset         0x9d02d148            0x8           8   
.text._on_bootstrap     0x9d02d150            0x8           8   
.rodata                 0x9d02d158            0x8           8  Read-only const 
.text.INTDisableInterru 0x9d02d160            0x8           8   
.text.INTEnableInterrup 0x9d02d168            0x8           8   
.rodata                 0x9d02d170            0x8           8  Read-only const 
.rodata                 0x9d02d178            0x4           4  Read-only const 
      Total kseg0_program_mem used  :     0x2d174      184692  35.2% of 0x80000

kseg0 Boot-Memory Usage
section                    address  length [bytes]      (dec)  Description
-------                 ----------  -------------------------  -----------
         Total kseg0_boot_mem used  :           0           0  <1% of 0x970

Exception-Memory Usage 
section                    address  length [bytes]      (dec)  Description
-------                 ----------  -------------------------  -----------
.app_excpt              0x9fc01180           0x10          16  General-Exception 
.vector_5               0x9fc012a0            0x8           8  Interrupt Vector 5 
.vector_7               0x9fc012e0            0x8           8  Interrupt Vector 7 
.vector_8               0x9fc01300            0x8           8  Interrupt Vector 8 
.vector_11              0x9fc01360            0x8           8  Interrupt Vector 11 
.vector_15              0x9fc013e0            0x8           8  Interrupt Vector 15 
.vector_16              0x9fc01400            0x8           8  Interrupt Vector 16 
.vector_17              0x9fc01420            0x8           8  Interrupt Vector 17 
.vector_19              0x9fc01460            0x8           8  Interrupt Vector 19 
.vector_21              0x9fc014a0            0x8           8  Interrupt Vector 21 
.vector_24              0x9fc01500            0x8           8  Interrupt Vector 24 
.vector_31              0x9fc015e0            0x8           8  Interrupt Vector 31 
.vector_32              0x9fc01600            0x8           8  Interrupt Vector 32 
.vector_49              0x9fc01820            0x8           8  Interrupt Vector 49 
.vector_51              0x9fc01860            0x8           8  Interrupt Vector 51 
          Total exception_mem used  :        0x80         128  3.1% of 0x1000

kseg1 Boot-Memory Usage
section                    address  length [bytes]      (dec)  Description
-------                 ----------  -------------------------  -----------
.reset                  0xbfc00000          0x1f4         500  Reset handler 
.bev_excpt              0xbfc00380           0x10          16  BEV-Exception 
         Total kseg1_boot_mem used  :       0x204         516  44.2% of 0x490
        --------------------------------------------------------------------------
         Total Program Memory used  :     0x2d3f8      185336  34.8% of 0x81e00
        --------------------------------------------------------------------------


kseg1 Data-Memory Usage
section                    address  length [bytes]      (dec)  Description
-------                 ----------  -------------------------  -----------
.eh_frame               0xa0000000           0x3c          60   
.sdata                  0xa000003c           0x44          68  Small init data 
.sbss                   0xa0000080          0x2c0         704  Small uninit data 
.bss                    0xa0000340        0x109cc       68044  Uninitialized data 
.bss                    0xa0010d1c         0x1400        5120  Uninitialized data 
.data                   0xa001211c          0x15c         348  Initialized data 
.bss                    0xa0012278           0x80         128  Uninitialized data 
.data                   0xa00122f8           0x50          80  Initialized data 
.pbss                   0xa0012348            0xc          12   
.bss                    0xa0012354            0x4           4  Uninitialized data 
.data.math_errhandling_ 0xa0012358            0x4           4   
         Total kseg1_data_mem used  :     0x1234c       74572  56.9% of 0x20000
        --------------------------------------------------------------------------
            Total Data Memory used  :     0x1234c       74572  56.9% of 0x20000
        --------------------------------------------------------------------------


Dynamic Data-Memory Reservation
section                    address  length [bytes]      (dec)  Description
-------                 ----------  -------------------------  -----------
heap                    0xa0012360              0           0  Reserved for heap 
stack                   0xa0012378         0xdc78       56440  Reserved for stack 

        --------------------------------------------------------------------------

Discarded input sections

 .reginfo       0x00000000       0x18 c:/program files (x86)/microchip/mplabc32/v2.02/bin/../lib/gcc/pic32mx/4.5.1/../../../../pic32mx/lib/crt0.o
 .pdr           0x00000000       0xa0 c:/program files (x86)/microchip/mplabc32/v2.02/bin/../lib/gcc/pic32mx/4.5.1/../../../../pic32mx/lib/crt0.o
 .reginfo       0x00000000       0x18 build/default/production/src/ads7846.o
 .pdr           0x00000000      0x160 build/default/production/src/ads7846.o
 .reginfo       0x00000000       0x18 build/default/production/src/anatype.o
 .pdr           0x00000000       0x60 build/default/production/src/anatype.o
 .reginfo       0x00000000       0x18 build/default/production/src/can.o
 .pdr           0x00000000       0x80 build/default/production/src/can.o
 .reginfo       0x00000000       0x18 build/default/production/src/clock.o
 .pdr           0x00000000      0x220 build/default/production/src/clock.o
 .reginfo       0x00000000       0x18 build/default/production/src/comsbusmaitre.o
 .pdr           0x00000000       0x60 build/default/production/src/comsbusmaitre.o
 .reginfo       0x00000000       0x18 build/default/production/src/config.o
 .pdr           0x00000000       0xe0 build/default/production/src/config.o
 .reginfo       0x00000000       0x18 build/default/production/src/echantillonnage.o
 .pdr           0x00000000       0x40 build/default/production/src/echantillonnage.o
 .reginfo       0x00000000       0x18 build/default/production/src/exceptions.o
 .pdr           0x00000000       0x20 build/default/production/src/exceptions.o
 .reginfo       0x00000000       0x18 build/default/production/src/font.o
 .pdr           0x00000000        0x0 build/default/production/src/font.o
 .reginfo       0x00000000       0x18 build/default/production/src/graphics.o
 .pdr           0x00000000      0x200 build/default/production/src/graphics.o
 .reginfo       0x00000000       0x18 build/default/production/src/gsm+.o
 .pdr           0x00000000       0xc0 build/default/production/src/gsm+.o
 .reginfo       0x00000000       0x18 build/default/production/src/gsm.o
 .pdr           0x00000000      0x3c0 build/default/production/src/gsm.o
 .reginfo       0x00000000       0x18 build/default/production/src/image.o
 .pdr           0x00000000        0x0 build/default/production/src/image.o
 .reginfo       0x00000000       0x18 build/default/production/src/kalman.o
 .pdr           0x00000000       0x20 build/default/production/src/kalman.o
 .reginfo       0x00000000       0x18 build/default/production/src/main.o
 .pdr           0x00000000       0x80 build/default/production/src/main.o
 .reginfo       0x00000000       0x18 build/default/production/src/mtrxsbus.o
 .pdr           0x00000000      0x1a0 build/default/production/src/mtrxsbus.o
 .reginfo       0x00000000       0x18 build/default/production/src/pwm.o
 .pdr           0x00000000       0x60 build/default/production/src/pwm.o
 .reginfo       0x00000000       0x18 build/default/production/src/relais.o
 .pdr           0x00000000       0x40 build/default/production/src/relais.o
 .reginfo       0x00000000       0x18 build/default/production/src/rtc.o
 .pdr           0x00000000      0x2a0 build/default/production/src/rtc.o
 .reginfo       0x00000000       0x18 build/default/production/src/s1d13700.o
 .pdr           0x00000000      0x140 build/default/production/src/s1d13700.o
 .reginfo       0x00000000       0x18 build/default/production/src/secteur.o
 .pdr           0x00000000      0x120 build/default/production/src/secteur.o
 .reginfo       0x00000000       0x18 build/default/production/src/slvxsbus.o
 .pdr           0x00000000      0x2c0 build/default/production/src/slvxsbus.o
 .reginfo       0x00000000       0x18 build/default/production/src/timers.o
 .pdr           0x00000000      0x140 build/default/production/src/timers.o
 .reginfo       0x00000000       0x18 build/default/production/src/tor.o
 .pdr           0x00000000      0x180 build/default/production/src/tor.o
 .reginfo       0x00000000       0x18 build/default/production/src/uart.o
 .pdr           0x00000000      0x3e0 build/default/production/src/uart.o
 .reginfo       0x00000000       0x18 build/default/production/src/variables.o
 .pdr           0x00000000      0x180 build/default/production/src/variables.o
 .reginfo       0x00000000       0x18 build/default/production/src/historique.o
 .pdr           0x00000000       0x60 build/default/production/src/historique.o
 .reginfo       0x00000000       0x18 build/default/production/src/terminal.o
 .pdr           0x00000000       0xa0 build/default/production/src/terminal.o
 .reginfo       0x00000000       0x18 build/default/production/src/eauglycolee.o
 .pdr           0x00000000       0x40 build/default/production/src/eauglycolee.o
 .reginfo       0x00000000       0x18 c:/program files (x86)/microchip/mplabc32/v2.02/bin/../lib/gcc/pic32mx/4.5.1\libgcc.a(floatunsisf.o)
 .pdr           0x00000000       0x20 c:/program files (x86)/microchip/mplabc32/v2.02/bin/../lib/gcc/pic32mx/4.5.1\libgcc.a(floatunsisf.o)
 .reginfo       0x00000000       0x18 c:/program files (x86)/microchip/mplabc32/v2.02/bin/../lib/gcc/pic32mx/4.5.1/../../../../pic32mx/lib\libc.a(memcpy.o)
 .pdr           0x00000000       0x20 c:/program files (x86)/microchip/mplabc32/v2.02/bin/../lib/gcc/pic32mx/4.5.1/../../../../pic32mx/lib\libc.a(memcpy.o)
 .reginfo       0x00000000       0x18 c:/program files (x86)/microchip/mplabc32/v2.02/bin/../lib/gcc/pic32mx/4.5.1/../../../../pic32mx/lib\libc.a(memset.o)
 .pdr           0x00000000       0x20 c:/program files (x86)/microchip/mplabc32/v2.02/bin/../lib/gcc/pic32mx/4.5.1/../../../../pic32mx/lib\libc.a(memset.o)
 .reginfo       0x00000000       0x18 c:/program files (x86)/microchip/mplabc32/v2.02/bin/../lib/gcc/pic32mx/4.5.1/../../../../pic32mx/lib\libc.a(strcmp.o)
 .pdr           0x00000000       0x20 c:/program files (x86)/microchip/mplabc32/v2.02/bin/../lib/gcc/pic32mx/4.5.1/../../../../pic32mx/lib\libc.a(strcmp.o)
 .reginfo       0x00000000       0x18 c:/program files (x86)/microchip/mplabc32/v2.02/bin/../lib/gcc/pic32mx/4.5.1/../../../../pic32mx/lib\libc.a(strcpy.o)
 .pdr           0x00000000       0x20 c:/program files (x86)/microchip/mplabc32/v2.02/bin/../lib/gcc/pic32mx/4.5.1/../../../../pic32mx/lib\libc.a(strcpy.o)
 .reginfo       0x00000000       0x18 c:/program files (x86)/microchip/mplabc32/v2.02/bin/../lib/gcc/pic32mx/4.5.1/../../../../pic32mx/lib\libc.a(strlen.o)
 .pdr           0x00000000       0x20 c:/program files (x86)/microchip/mplabc32/v2.02/bin/../lib/gcc/pic32mx/4.5.1/../../../../pic32mx/lib\libc.a(strlen.o)
 .reginfo       0x00000000       0x18 c:/program files (x86)/microchip/mplabc32/v2.02/bin/../lib/gcc/pic32mx/4.5.1/../../../../pic32mx/lib\libc.a(general-exception.o)
 .pdr           0x00000000       0x20 c:/program files (x86)/microchip/mplabc32/v2.02/bin/../lib/gcc/pic32mx/4.5.1/../../../../pic32mx/lib\libc.a(general-exception.o)
 .reginfo       0x00000000       0x18 c:/program files (x86)/microchip/mplabc32/v2.02/bin/../lib/gcc/pic32mx/4.5.1/../../../../pic32mx/lib\libc.a(atoi.o)
 .pdr           0x00000000       0x20 c:/program files (x86)/microchip/mplabc32/v2.02/bin/../lib/gcc/pic32mx/4.5.1/../../../../pic32mx/lib\libc.a(atoi.o)
 .reginfo       0x00000000       0x18 c:/program files (x86)/microchip/mplabc32/v2.02/bin/../lib/gcc/pic32mx/4.5.1/../../../../pic32mx/lib\libc.a(atol.o)
 .pdr           0x00000000       0x20 c:/program files (x86)/microchip/mplabc32/v2.02/bin/../lib/gcc/pic32mx/4.5.1/../../../../pic32mx/lib\libc.a(atol.o)
 .reginfo       0x00000000       0x18 c:/program files (x86)/microchip/mplabc32/v2.02/bin/../lib/gcc/pic32mx/4.5.1/../../../../pic32mx/lib\libc.a(ctime.o)
 .pdr           0x00000000       0x80 c:/program files (x86)/microchip/mplabc32/v2.02/bin/../lib/gcc/pic32mx/4.5.1/../../../../pic32mx/lib\libc.a(ctime.o)
 .reginfo       0x00000000       0x18 c:/program files (x86)/microchip/mplabc32/v2.02/bin/../lib/gcc/pic32mx/4.5.1/../../../../pic32mx/lib\libc.a(ctype.o)
 .pdr           0x00000000        0x0 c:/program files (x86)/microchip/mplabc32/v2.02/bin/../lib/gcc/pic32mx/4.5.1/../../../../pic32mx/lib\libc.a(ctype.o)
 .reginfo       0x00000000       0x18 c:/program files (x86)/microchip/mplabc32/v2.02/bin/../lib/gcc/pic32mx/4.5.1/../../../../pic32mx/lib\libc.a(ctypef.o)
 .pdr           0x00000000      0x220 c:/program files (x86)/microchip/mplabc32/v2.02/bin/../lib/gcc/pic32mx/4.5.1/../../../../pic32mx/lib\libc.a(ctypef.o)
 .reginfo       0x00000000       0x18 c:/program files (x86)/microchip/mplabc32/v2.02/bin/../lib/gcc/pic32mx/4.5.1/../../../../pic32mx/lib\libc.a(mktime.o)
 .pdr           0x00000000       0x40 c:/program files (x86)/microchip/mplabc32/v2.02/bin/../lib/gcc/pic32mx/4.5.1/../../../../pic32mx/lib\libc.a(mktime.o)
 .reginfo       0x00000000       0x18 c:/program files (x86)/microchip/mplabc32/v2.02/bin/../lib/gcc/pic32mx/4.5.1/../../../../pic32mx/lib\libc.a(strcat.o)
 .pdr           0x00000000       0x20 c:/program files (x86)/microchip/mplabc32/v2.02/bin/../lib/gcc/pic32mx/4.5.1/../../../../pic32mx/lib\libc.a(strcat.o)
 .reginfo       0x00000000       0x18 c:/program files (x86)/microchip/mplabc32/v2.02/bin/../lib/gcc/pic32mx/4.5.1/../../../../pic32mx/lib\libc.a(strchr.o)
 .pdr           0x00000000       0x20 c:/program files (x86)/microchip/mplabc32/v2.02/bin/../lib/gcc/pic32mx/4.5.1/../../../../pic32mx/lib\libc.a(strchr.o)
 .reginfo       0x00000000       0x18 c:/program files (x86)/microchip/mplabc32/v2.02/bin/../lib/gcc/pic32mx/4.5.1/../../../../pic32mx/lib\libc.a(strncat.o)
 .pdr           0x00000000       0x20 c:/program files (x86)/microchip/mplabc32/v2.02/bin/../lib/gcc/pic32mx/4.5.1/../../../../pic32mx/lib\libc.a(strncat.o)
 .reginfo       0x00000000       0x18 c:/program files (x86)/microchip/mplabc32/v2.02/bin/../lib/gcc/pic32mx/4.5.1/../../../../pic32mx/lib\libc.a(strncmp.o)
 .pdr           0x00000000       0x20 c:/program files (x86)/microchip/mplabc32/v2.02/bin/../lib/gcc/pic32mx/4.5.1/../../../../pic32mx/lib\libc.a(strncmp.o)
 .reginfo       0x00000000       0x18 c:/program files (x86)/microchip/mplabc32/v2.02/bin/../lib/gcc/pic32mx/4.5.1/../../../../pic32mx/lib\libc.a(strncpy.o)
 .pdr           0x00000000       0x20 c:/program files (x86)/microchip/mplabc32/v2.02/bin/../lib/gcc/pic32mx/4.5.1/../../../../pic32mx/lib\libc.a(strncpy.o)
 .reginfo       0x00000000       0x18 c:/program files (x86)/microchip/mplabc32/v2.02/bin/../lib/gcc/pic32mx/4.5.1/../../../../pic32mx/lib\libc.a(strstr.o)
 .pdr           0x00000000       0x20 c:/program files (x86)/microchip/mplabc32/v2.02/bin/../lib/gcc/pic32mx/4.5.1/../../../../pic32mx/lib\libc.a(strstr.o)
 .reginfo       0x00000000       0x18 c:/program files (x86)/microchip/mplabc32/v2.02/bin/../lib/gcc/pic32mx/4.5.1/../../../../pic32mx/lib\libc.a(strtok.o)
 .pdr           0x00000000       0x20 c:/program files (x86)/microchip/mplabc32/v2.02/bin/../lib/gcc/pic32mx/4.5.1/../../../../pic32mx/lib\libc.a(strtok.o)
 .reginfo       0x00000000       0x18 c:/program files (x86)/microchip/mplabc32/v2.02/bin/../lib/gcc/pic32mx/4.5.1/../../../../pic32mx/lib\libc.a(xtoi.o)
 .pdr           0x00000000       0x20 c:/program files (x86)/microchip/mplabc32/v2.02/bin/../lib/gcc/pic32mx/4.5.1/../../../../pic32mx/lib\libc.a(xtoi.o)
 .reginfo       0x00000000       0x18 c:/program files (x86)/microchip/mplabc32/v2.02/bin/../lib/gcc/pic32mx/4.5.1/../../../../pic32mx/lib\libc.a(atof.o)
 .pdr           0x00000000       0x20 c:/program files (x86)/microchip/mplabc32/v2.02/bin/../lib/gcc/pic32mx/4.5.1/../../../../pic32mx/lib\libc.a(atof.o)
 .reginfo       0x00000000       0x18 c:/program files (x86)/microchip/mplabc32/v2.02/bin/../lib/gcc/pic32mx/4.5.1/../../../../pic32mx/lib\libc.a(sprintf_cdfFnopsuxX.eo)
 .pdr           0x00000000       0x20 c:/program files (x86)/microchip/mplabc32/v2.02/bin/../lib/gcc/pic32mx/4.5.1/../../../../pic32mx/lib\libc.a(sprintf_cdfFnopsuxX.eo)
 .reginfo       0x00000000       0x18 c:/program files (x86)/microchip/mplabc32/v2.02/bin/../lib/gcc/pic32mx/4.5.1/../../../../pic32mx/lib\libc.a(default-bootstrap-exception-handler.o)
 .pdr           0x00000000       0x20 c:/program files (x86)/microchip/mplabc32/v2.02/bin/../lib/gcc/pic32mx/4.5.1/../../../../pic32mx/lib\libc.a(default-bootstrap-exception-handler.o)
 .reginfo       0x00000000       0x18 c:/program files (x86)/microchip/mplabc32/v2.02/bin/../lib/gcc/pic32mx/4.5.1/../../../../pic32mx/lib\libc.a(default-on-reset.o)
 .pdr           0x00000000       0x20 c:/program files (x86)/microchip/mplabc32/v2.02/bin/../lib/gcc/pic32mx/4.5.1/../../../../pic32mx/lib\libc.a(default-on-reset.o)
 .reginfo       0x00000000       0x18 c:/program files (x86)/microchip/mplabc32/v2.02/bin/../lib/gcc/pic32mx/4.5.1/../../../../pic32mx/lib\libc.a(default-on-bootstrap.o)
 .pdr           0x00000000       0x20 c:/program files (x86)/microchip/mplabc32/v2.02/bin/../lib/gcc/pic32mx/4.5.1/../../../../pic32mx/lib\libc.a(default-on-bootstrap.o)
 .reginfo       0x00000000       0x18 c:/program files (x86)/microchip/mplabc32/v2.02/bin/../lib/gcc/pic32mx/4.5.1/../../../../pic32mx/lib\libc.a(default-nmi-handler.o)
 .pdr           0x00000000       0x20 c:/program files (x86)/microchip/mplabc32/v2.02/bin/../lib/gcc/pic32mx/4.5.1/../../../../pic32mx/lib\libc.a(default-nmi-handler.o)
 .reginfo       0x00000000       0x18 c:/program files (x86)/microchip/mplabc32/v2.02/bin/../lib/gcc/pic32mx/4.5.1/../../../../pic32mx/lib\libc.a(strcspn.o)
 .pdr           0x00000000       0x20 c:/program files (x86)/microchip/mplabc32/v2.02/bin/../lib/gcc/pic32mx/4.5.1/../../../../pic32mx/lib\libc.a(strcspn.o)
 .reginfo       0x00000000       0x18 c:/program files (x86)/microchip/mplabc32/v2.02/bin/../lib/gcc/pic32mx/4.5.1/../../../../pic32mx/lib\libc.a(strspn.o)
 .pdr           0x00000000       0x20 c:/program files (x86)/microchip/mplabc32/v2.02/bin/../lib/gcc/pic32mx/4.5.1/../../../../pic32mx/lib\libc.a(strspn.o)
 .reginfo       0x00000000       0x18 c:/program files (x86)/microchip/mplabc32/v2.02/bin/../lib/gcc/pic32mx/4.5.1/../../../../pic32mx/lib\libc.a(strtod.o)
 .pdr           0x00000000       0x40 c:/program files (x86)/microchip/mplabc32/v2.02/bin/../lib/gcc/pic32mx/4.5.1/../../../../pic32mx/lib\libc.a(strtod.o)
 .reginfo       0x00000000       0x18 c:/program files (x86)/microchip/mplabc32/v2.02/bin/../lib/gcc/pic32mx/4.5.1/../../../../pic32mx/lib\libc.a(doprnt_cdfFnopsuxX.eo)
 .pdr           0x00000000       0x40 c:/program files (x86)/microchip/mplabc32/v2.02/bin/../lib/gcc/pic32mx/4.5.1/../../../../pic32mx/lib\libc.a(doprnt_cdfFnopsuxX.eo)
 .reginfo       0x00000000       0x18 c:/program files (x86)/microchip/mplabc32/v2.02/bin/../lib/gcc/pic32mx/4.5.1/../../../../pic32mx/lib\libc.a(_fputc_simple.o)
 .pdr           0x00000000       0x20 c:/program files (x86)/microchip/mplabc32/v2.02/bin/../lib/gcc/pic32mx/4.5.1/../../../../pic32mx/lib\libc.a(_fputc_simple.o)
 .reginfo       0x00000000       0x18 c:/program files (x86)/microchip/mplabc32/v2.02/bin/../lib/gcc/pic32mx/4.5.1/../../../../pic32mx/lib\libc.a(powers.o)
 .pdr           0x00000000        0x0 c:/program files (x86)/microchip/mplabc32/v2.02/bin/../lib/gcc/pic32mx/4.5.1/../../../../pic32mx/lib\libc.a(powers.o)
 .reginfo       0x00000000       0x18 c:/program files (x86)/microchip/mplabc32/v2.02/bin/../lib/gcc/pic32mx/4.5.1/../../../../pic32mx/lib\libc.a(write.o)
 .pdr           0x00000000       0x20 c:/program files (x86)/microchip/mplabc32/v2.02/bin/../lib/gcc/pic32mx/4.5.1/../../../../pic32mx/lib\libc.a(write.o)
 .reginfo       0x00000000       0x18 c:/program files (x86)/microchip/mplabc32/v2.02/bin/../lib/gcc/pic32mx/4.5.1/../../../../pic32mx/lib\libc.a(_iob.o)
 .pdr           0x00000000        0x0 c:/program files (x86)/microchip/mplabc32/v2.02/bin/../lib/gcc/pic32mx/4.5.1/../../../../pic32mx/lib\libc.a(_iob.o)
 .reginfo       0x00000000       0x18 c:/program files (x86)/microchip/mplabc32/v2.02/bin/../lib/gcc/pic32mx/4.5.1/../../../../pic32mx/lib\libc.a(_flsbuf_simple.o)
 .pdr           0x00000000       0x20 c:/program files (x86)/microchip/mplabc32/v2.02/bin/../lib/gcc/pic32mx/4.5.1/../../../../pic32mx/lib\libc.a(_flsbuf_simple.o)
 .reginfo       0x00000000       0x18 c:/program files (x86)/microchip/mplabc32/v2.02/bin/../lib/gcc/pic32mx/4.5.1/../../../../pic32mx/lib\libc.a(_mon_putc.o)
 .pdr           0x00000000       0x20 c:/program files (x86)/microchip/mplabc32/v2.02/bin/../lib/gcc/pic32mx/4.5.1/../../../../pic32mx/lib\libc.a(_mon_putc.o)
 .reginfo       0x00000000       0x18 c:/program files (x86)/microchip/mplabc32/v2.02/bin/../lib/gcc/pic32mx/4.5.1/../../../../pic32mx/lib\libc.a(c32_uart.o)
 .pdr           0x00000000        0x0 c:/program files (x86)/microchip/mplabc32/v2.02/bin/../lib/gcc/pic32mx/4.5.1/../../../../pic32mx/lib\libc.a(c32_uart.o)
 .reginfo       0x00000000       0x18 c:/program files (x86)/microchip/mplabc32/v2.02/bin/../lib/gcc/pic32mx/4.5.1/../../../../pic32mx/lib\libm.a(fpmod32.o)
 .pdr           0x00000000        0x0 c:/program files (x86)/microchip/mplabc32/v2.02/bin/../lib/gcc/pic32mx/4.5.1/../../../../pic32mx/lib\libm.a(fpmod32.o)
 .reginfo       0x00000000       0x18 c:/program files (x86)/microchip/mplabc32/v2.02/bin/../lib/gcc/pic32mx/4.5.1/../../../../pic32mx/lib\libm.a(dp32.o)
 .pdr           0x00000000        0x0 c:/program files (x86)/microchip/mplabc32/v2.02/bin/../lib/gcc/pic32mx/4.5.1/../../../../pic32mx/lib\libm.a(dp32.o)
 .reginfo       0x00000000       0x18 c:/program files (x86)/microchip/mplabc32/v2.02/bin/../lib/gcc/pic32mx/4.5.1/../../../../pic32mx/lib\libm.a(w_sqrtf.o)
 .pdr           0x00000000       0x20 c:/program files (x86)/microchip/mplabc32/v2.02/bin/../lib/gcc/pic32mx/4.5.1/../../../../pic32mx/lib\libm.a(w_sqrtf.o)
 .reginfo       0x00000000       0x18 c:/program files (x86)/microchip/mplabc32/v2.02/bin/../lib/gcc/pic32mx/4.5.1/../../../../pic32mx/lib\libm.a(fp32.o)
 .pdr           0x00000000        0x0 c:/program files (x86)/microchip/mplabc32/v2.02/bin/../lib/gcc/pic32mx/4.5.1/../../../../pic32mx/lib\libm.a(fp32.o)
 .reginfo       0x00000000       0x18 c:/program files (x86)/microchip/mplabc32/v2.02/bin/../lib/gcc/pic32mx/4.5.1/../../../../pic32mx/lib\libm.a(s_lib_ver.o)
 .pdr           0x00000000        0x0 c:/program files (x86)/microchip/mplabc32/v2.02/bin/../lib/gcc/pic32mx/4.5.1/../../../../pic32mx/lib\libm.a(s_lib_ver.o)
 .reginfo       0x00000000       0x18 c:/program files (x86)/microchip/mplabc32/v2.02/bin/../lib/gcc/pic32mx/4.5.1/../../../../pic32mx/lib\libm.a(fpsqrt32.o)
 .pdr           0x00000000        0x0 c:/program files (x86)/microchip/mplabc32/v2.02/bin/../lib/gcc/pic32mx/4.5.1/../../../../pic32mx/lib\libm.a(fpsqrt32.o)
 .reginfo       0x00000000       0x18 c:/program files (x86)/microchip/mplabc32/v2.02/bin/../lib/gcc/pic32mx/4.5.1/../../../../pic32mx/lib\libe.a(_floatdisf.o)
 .pdr           0x00000000       0x20 c:/program files (x86)/microchip/mplabc32/v2.02/bin/../lib/gcc/pic32mx/4.5.1/../../../../pic32mx/lib\libe.a(_floatdisf.o)
 .reginfo       0x00000000       0x18 c:/program files (x86)/microchip/mplabc32/v2.02/bin/../lib/gcc/pic32mx/4.5.1/../../../../pic32mx/lib\libe.a(_strtod.o)
 .pdr           0x00000000       0x20 c:/program files (x86)/microchip/mplabc32/v2.02/bin/../lib/gcc/pic32mx/4.5.1/../../../../pic32mx/lib\libe.a(_strtod.o)
 .reginfo       0x00000000       0x18 c:/program files (x86)/microchip/mplabc32/v2.02/bin/../lib/gcc/pic32mx/4.5.1/../../../../pic32mx/lib\libe.a(_ldexp.o)
 .pdr           0x00000000       0x20 c:/program files (x86)/microchip/mplabc32/v2.02/bin/../lib/gcc/pic32mx/4.5.1/../../../../pic32mx/lib\libe.a(_ldexp.o)
 .reginfo       0x00000000       0x18 c:/program files (x86)/microchip/mplabc32/v2.02/bin/../lib/gcc/pic32mx/4.5.1/../../../../pic32mx/lib\libmchp_peripheral_32MX795F512L.a(soft_reset_lib.o)
 .pdr           0x00000000       0x20 c:/program files (x86)/microchip/mplabc32/v2.02/bin/../lib/gcc/pic32mx/4.5.1/../../../../pic32mx/lib\libmchp_peripheral_32MX795F512L.a(soft_reset_lib.o)
 .reginfo       0x00000000       0x18 c:/program files (x86)/microchip/mplabc32/v2.02/bin/../lib/gcc/pic32mx/4.5.1/../../../../pic32mx/lib\libmchp_peripheral_32MX795F512L.a(pcache.o)
 .pdr           0x00000000       0x40 c:/program files (x86)/microchip/mplabc32/v2.02/bin/../lib/gcc/pic32mx/4.5.1/../../../../pic32mx/lib\libmchp_peripheral_32MX795F512L.a(pcache.o)
 .reginfo       0x00000000       0x18 c:/program files (x86)/microchip/mplabc32/v2.02/bin/../lib/gcc/pic32mx/4.5.1/../../../../pic32mx/lib\libmchp_peripheral_32MX795F512L.a(osc_config_lib.o)
 .pdr           0x00000000       0x20 c:/program files (x86)/microchip/mplabc32/v2.02/bin/../lib/gcc/pic32mx/4.5.1/../../../../pic32mx/lib\libmchp_peripheral_32MX795F512L.a(osc_config_lib.o)
 .reginfo       0x00000000       0x18 c:/program files (x86)/microchip/mplabc32/v2.02/bin/../lib/gcc/pic32mx/4.5.1/../../../../pic32mx/lib\libmchp_peripheral_32MX795F512L.a(int_disable_interrupts_lib.o)
 .pdr           0x00000000       0x20 c:/program files (x86)/microchip/mplabc32/v2.02/bin/../lib/gcc/pic32mx/4.5.1/../../../../pic32mx/lib\libmchp_peripheral_32MX795F512L.a(int_disable_interrupts_lib.o)
 .reginfo       0x00000000       0x18 c:/program files (x86)/microchip/mplabc32/v2.02/bin/../lib/gcc/pic32mx/4.5.1/../../../../pic32mx/lib\libmchp_peripheral_32MX795F512L.a(int_restore_interrupts_lib.o)
 .pdr           0x00000000       0x20 c:/program files (x86)/microchip/mplabc32/v2.02/bin/../lib/gcc/pic32mx/4.5.1/../../../../pic32mx/lib\libmchp_peripheral_32MX795F512L.a(int_restore_interrupts_lib.o)
 .reginfo       0x00000000       0x18 c:/program files (x86)/microchip/mplabc32/v2.02/bin/../lib/gcc/pic32mx/4.5.1/../../../../pic32mx/lib\libmchp_peripheral_32MX795F512L.a(int_enable_mv_int_lib.o)
 .pdr           0x00000000       0x20 c:/program files (x86)/microchip/mplabc32/v2.02/bin/../lib/gcc/pic32mx/4.5.1/../../../../pic32mx/lib\libmchp_peripheral_32MX795F512L.a(int_enable_mv_int_lib.o)
 .reginfo       0x00000000       0x18 c:/program files (x86)/microchip/mplabc32/v2.02/bin/../lib/gcc/pic32mx/4.5.1/../../../../pic32mx/lib\libmchp_peripheral_32MX795F512L.a(int_tbl_lib.o)
 .pdr           0x00000000      0x120 c:/program files (x86)/microchip/mplabc32/v2.02/bin/../lib/gcc/pic32mx/4.5.1/../../../../pic32mx/lib\libmchp_peripheral_32MX795F512L.a(int_tbl_lib.o)
 .reginfo       0x00000000       0x18 c:/program files (x86)/microchip/mplabc32/v2.02/bin/../lib/gcc/pic32mx/4.5.1/../../../../pic32mx/lib\libmchp_peripheral_32MX795F512L.a(spi_chn_open_lib.o)
 .pdr           0x00000000       0x20 c:/program files (x86)/microchip/mplabc32/v2.02/bin/../lib/gcc/pic32mx/4.5.1/../../../../pic32mx/lib\libmchp_peripheral_32MX795F512L.a(spi_chn_open_lib.o)
 .reginfo       0x00000000       0x18 c:/program files (x86)/microchip/mplabc32/v2.02/bin/../lib/gcc/pic32mx/4.5.1/../../../../pic32mx/lib\libmchp_peripheral_32MX795F512L.a(spi_io_tbl_libp.o)
 .pdr           0x00000000        0x0 c:/program files (x86)/microchip/mplabc32/v2.02/bin/../lib/gcc/pic32mx/4.5.1/../../../../pic32mx/lib\libmchp_peripheral_32MX795F512L.a(spi_io_tbl_libp.o)
 .reginfo       0x00000000       0x18 c:/program files (x86)/microchip/mplabc32/v2.02/bin/../lib/gcc/pic32mx/4.5.1/../../../../pic32mx/lib\libmchp_peripheral_32MX795F512L.a(spi_map_tbl_libp.o)
 .pdr           0x00000000        0x0 c:/program files (x86)/microchip/mplabc32/v2.02/bin/../lib/gcc/pic32mx/4.5.1/../../../../pic32mx/lib\libmchp_peripheral_32MX795F512L.a(spi_map_tbl_libp.o)
 .reginfo       0x00000000       0x18 c:/program files (x86)/microchip/mplabc32/v2.02/bin/../lib/gcc/pic32mx/4.5.1/../../../../pic32mx/lib\libmchp_peripheral_32MX795F512L.a(nvm_erase_page_lib.o)
 .pdr           0x00000000       0x20 c:/program files (x86)/microchip/mplabc32/v2.02/bin/../lib/gcc/pic32mx/4.5.1/../../../../pic32mx/lib\libmchp_peripheral_32MX795F512L.a(nvm_erase_page_lib.o)
 .reginfo       0x00000000       0x18 c:/program files (x86)/microchip/mplabc32/v2.02/bin/../lib/gcc/pic32mx/4.5.1/../../../../pic32mx/lib\libmchp_peripheral_32MX795F512L.a(nvm_operation_lib.o)
 .pdr           0x00000000       0x20 c:/program files (x86)/microchip/mplabc32/v2.02/bin/../lib/gcc/pic32mx/4.5.1/../../../../pic32mx/lib\libmchp_peripheral_32MX795F512L.a(nvm_operation_lib.o)
 .reginfo       0x00000000       0x18 c:/program files (x86)/microchip/mplabc32/v2.02/bin/../lib/gcc/pic32mx/4.5.1/../../../../pic32mx/lib\libmchp_peripheral_32MX795F512L.a(nvm_write_row_lib.o)
 .pdr           0x00000000       0x20 c:/program files (x86)/microchip/mplabc32/v2.02/bin/../lib/gcc/pic32mx/4.5.1/../../../../pic32mx/lib\libmchp_peripheral_32MX795F512L.a(nvm_write_row_lib.o)
 .reginfo       0x00000000       0x18 c:/program files (x86)/microchip/mplabc32/v2.02/bin/../lib/gcc/pic32mx/4.5.1/../../../../pic32mx/lib\libmchp_peripheral_32MX795F512L.a(port_set_pins_digital_in_lib.o)
 .pdr           0x00000000       0x20 c:/program files (x86)/microchip/mplabc32/v2.02/bin/../lib/gcc/pic32mx/4.5.1/../../../../pic32mx/lib\libmchp_peripheral_32MX795F512L.a(port_set_pins_digital_in_lib.o)
 .reginfo       0x00000000       0x18 c:/program files (x86)/microchip/mplabc32/v2.02/bin/../lib/gcc/pic32mx/4.5.1/../../../../pic32mx/lib\libmchp_peripheral_32MX795F512L.a(port_set_pins_digital_out_lib.o)
 .pdr           0x00000000       0x20 c:/program files (x86)/microchip/mplabc32/v2.02/bin/../lib/gcc/pic32mx/4.5.1/../../../../pic32mx/lib\libmchp_peripheral_32MX795F512L.a(port_set_pins_digital_out_lib.o)
 .reginfo       0x00000000       0x18 c:/program files (x86)/microchip/mplabc32/v2.02/bin/../lib/gcc/pic32mx/4.5.1/../../../../pic32mx/lib\libmchp_peripheral_32MX795F512L.a(_ports_tbl_libp.o)
 .pdr           0x00000000        0x0 c:/program files (x86)/microchip/mplabc32/v2.02/bin/../lib/gcc/pic32mx/4.5.1/../../../../pic32mx/lib\libmchp_peripheral_32MX795F512L.a(_ports_tbl_libp.o)
 .reginfo       0x00000000       0x18 c:/program files (x86)/microchip/mplabc32/v2.02/bin/../lib/gcc/pic32mx/4.5.1/../../../../pic32mx/lib\libmchp_peripheral_32MX795F512L.a(uart_lib.o)
 .pdr           0x00000000      0x100 c:/program files (x86)/microchip/mplabc32/v2.02/bin/../lib/gcc/pic32mx/4.5.1/../../../../pic32mx/lib\libmchp_peripheral_32MX795F512L.a(uart_lib.o)
 .reginfo       0x00000000       0x18 c:/program files (x86)/microchip/mplabc32/v2.02/bin/../lib/gcc/pic32mx/4.5.1/../../../../pic32mx/lib\libmchp_peripheral_32MX795F512L.a(int_enable_interrupts_lib.o)
 .pdr           0x00000000       0x20 c:/program files (x86)/microchip/mplabc32/v2.02/bin/../lib/gcc/pic32mx/4.5.1/../../../../pic32mx/lib\libmchp_peripheral_32MX795F512L.a(int_enable_interrupts_lib.o)
 .reginfo       0x00000000       0x18 c:/program files (x86)/microchip/mplabc32/v2.02/bin/../lib/gcc/pic32mx/4.5.1/../../../../pic32mx/lib\libc.a(errno.o)
 .pdr           0x00000000        0x0 c:/program files (x86)/microchip/mplabc32/v2.02/bin/../lib/gcc/pic32mx/4.5.1/../../../../pic32mx/lib\libc.a(errno.o)
 .reginfo       0x00000000       0x18 c:/program files (x86)/microchip/mplabc32/v2.02/bin/../lib/gcc/pic32mx/4.5.1\libgcc.a(_lshrdi3.o)
 .pdr           0x00000000       0x20 c:/program files (x86)/microchip/mplabc32/v2.02/bin/../lib/gcc/pic32mx/4.5.1\libgcc.a(_lshrdi3.o)
 .reginfo       0x00000000       0x18 c:/program files (x86)/microchip/mplabc32/v2.02/bin/../lib/gcc/pic32mx/4.5.1\libgcc.a(_ashldi3.o)
 .pdr           0x00000000       0x20 c:/program files (x86)/microchip/mplabc32/v2.02/bin/../lib/gcc/pic32mx/4.5.1\libgcc.a(_ashldi3.o)
 .reginfo       0x00000000       0x18 c:/program files (x86)/microchip/mplabc32/v2.02/bin/../lib/gcc/pic32mx/4.5.1\libgcc.a(_floatundisf.o)
 .pdr           0x00000000       0x20 c:/program files (x86)/microchip/mplabc32/v2.02/bin/../lib/gcc/pic32mx/4.5.1\libgcc.a(_floatundisf.o)
 .reginfo       0x00000000       0x18 c:/program files (x86)/microchip/mplabc32/v2.02/bin/../lib/gcc/pic32mx/4.5.1\libgcc.a(_udivdi3.o)
 .pdr           0x00000000       0x20 c:/program files (x86)/microchip/mplabc32/v2.02/bin/../lib/gcc/pic32mx/4.5.1\libgcc.a(_udivdi3.o)
 .reginfo       0x00000000       0x18 c:/program files (x86)/microchip/mplabc32/v2.02/bin/../lib/gcc/pic32mx/4.5.1\libgcc.a(_umoddi3.o)
 .pdr           0x00000000       0x20 c:/program files (x86)/microchip/mplabc32/v2.02/bin/../lib/gcc/pic32mx/4.5.1\libgcc.a(_umoddi3.o)
 .reginfo       0x00000000       0x18 c:/program files (x86)/microchip/mplabc32/v2.02/bin/../lib/gcc/pic32mx/4.5.1/../../../../pic32mx/lib/./proc/32MX795F512L\processor.o
 .pdr           0x00000000        0x0 c:/program files (x86)/microchip/mplabc32/v2.02/bin/../lib/gcc/pic32mx/4.5.1/../../../../pic32mx/lib/./proc/32MX795F512L\processor.o

Memory Configuration

Name             Origin             Length             Attributes
kseg0_program_mem 0x9d000000         0x00080000         xr
kseg0_boot_mem   0x9fc00490         0x00000970
exception_mem    0x9fc01000         0x00001000
kseg1_boot_mem   0xbfc00000         0x00000490
debug_exec_mem   0xbfc02000         0x00000ff0
config3          0xbfc02ff0         0x00000004
config2          0xbfc02ff4         0x00000004
config1          0xbfc02ff8         0x00000004
config0          0xbfc02ffc         0x00000004
kseg1_data_mem   0xa0000000         0x00020000         w !x
sfrs             0xbf800000         0x00100000
configsfrs       0xbfc02ff0         0x00000010
*default*        0x00000000         0xffffffff

Linker script and memory map

LOAD c:/program files (x86)/microchip/mplabc32/v2.02/bin/../lib/gcc/pic32mx/4.5.1/../../../../pic32mx/lib/crt0.o
LOAD build/default/production/src/ads7846.o
LOAD build/default/production/src/anatype.o
LOAD build/default/production/src/can.o
LOAD build/default/production/src/clock.o
LOAD build/default/production/src/comsbusmaitre.o
LOAD build/default/production/src/config.o
LOAD build/default/production/src/echantillonnage.o
LOAD build/default/production/src/exceptions.o
LOAD build/default/production/src/font.o
LOAD build/default/production/src/graphics.o
LOAD build/default/production/src/gsm+.o
LOAD build/default/production/src/gsm.o
LOAD build/default/production/src/image.o
LOAD build/default/production/src/kalman.o
LOAD build/default/production/src/main.o
LOAD build/default/production/src/mtrxsbus.o
LOAD build/default/production/src/pwm.o
LOAD build/default/production/src/relais.o
LOAD build/default/production/src/rtc.o
LOAD build/default/production/src/s1d13700.o
LOAD build/default/production/src/secteur.o
LOAD build/default/production/src/slvxsbus.o
LOAD build/default/production/src/timers.o
LOAD build/default/production/src/tor.o
LOAD build/default/production/src/uart.o
LOAD build/default/production/src/variables.o
LOAD build/default/production/src/historique.o
LOAD build/default/production/src/terminal.o
LOAD build/default/production/src/eauglycolee.o
                0x00000001                __MPLAB_BUILD = 0x1
LOAD c:/program files (x86)/microchip/mplabc32/v2.02/bin/../lib/gcc/pic32mx/4.5.1\libgcc.a
START GROUP
LOAD c:/program files (x86)/microchip/mplabc32/v2.02/bin/../lib/gcc/pic32mx/4.5.1/../../../../pic32mx/lib\libdebug.a
LOAD c:/program files (x86)/microchip/mplabc32/v2.02/bin/../lib/gcc/pic32mx/4.5.1/../../../../pic32mx/lib\libc.a
LOAD c:/program files (x86)/microchip/mplabc32/v2.02/bin/../lib/gcc/pic32mx/4.5.1/../../../../pic32mx/lib\libm.a
LOAD c:/program files (x86)/microchip/mplabc32/v2.02/bin/../lib/gcc/pic32mx/4.5.1/../../../../pic32mx/lib\libe.a
LOAD c:/program files (x86)/microchip/mplabc32/v2.02/bin/../lib/gcc/pic32mx/4.5.1/../../../../pic32mx/lib\libdsp.a
LOAD c:/program files (x86)/microchip/mplabc32/v2.02/bin/../lib/gcc/pic32mx/4.5.1/../../../../pic32mx/lib\libmchp_peripheral.a
LOAD c:/program files (x86)/microchip/mplabc32/v2.02/bin/../lib/gcc/pic32mx/4.5.1/../../../../pic32mx/lib\libmchp_peripheral_32MX795F512L.a
END GROUP
LOAD c:/program files (x86)/microchip/mplabc32/v2.02/bin/../lib/gcc/pic32mx/4.5.1\libgcc.a
                0x00000400                PROVIDE (_min_stack_size, 0x400)
                0x00000000                PROVIDE (_min_heap_size, 0x0)
LOAD c:/program files (x86)/microchip/mplabc32/v2.02/bin/../lib/gcc/pic32mx/4.5.1/../../../../pic32mx/lib/./proc/32MX795F512L\processor.o
                0x00000001                PROVIDE (_vector_spacing, 0x1)
                0x9fc01000                _ebase_address = 0x9fc01000
                0xbfc00000                _RESET_ADDR = 0xbfc00000
                0xbfc00380                _BEV_EXCPT_ADDR = 0xbfc00380
                0xbfc00480                _DBG_EXCPT_ADDR = 0xbfc00480
                0xbfc02000                _DBG_CODE_ADDR = 0xbfc02000
                0x00000ff0                _DBG_CODE_SIZE = 0xff0
                0x9fc01180                _GEN_EXCPT_ADDR = (_ebase_address + 0x180)

.config_BFC02FF0
 *(.config_BFC02FF0)

.config_BFC02FF4
                0xbfc02ff4        0x4
 *(.config_BFC02FF4)
 .config_BFC02FF4
                0xbfc02ff4        0x4 build/default/production/src/main.o

.config_BFC02FF8
                0xbfc02ff8        0x4
 *(.config_BFC02FF8)
 .config_BFC02FF8
                0xbfc02ff8        0x4 build/default/production/src/main.o

.config_BFC02FFC
                0xbfc02ffc        0x4
 *(.config_BFC02FFC)
 .config_BFC02FFC
                0xbfc02ffc        0x4 build/default/production/src/main.o
                0xbfc02000                PROVIDE (_DBG_CODE_ADDR, 0xbfc02000)
                0x00000ff0                PROVIDE (_DBG_CODE_SIZE, 0xff0)

.reset          0xbfc00000      0x1f4
 *(.reset)
 .reset         0xbfc00000       0x10 c:/program files (x86)/microchip/mplabc32/v2.02/bin/../lib/gcc/pic32mx/4.5.1/../../../../pic32mx/lib/crt0.o
                0xbfc00000                _reset
 *(.reset.startup)
 .reset.startup
                0xbfc00010      0x1e4 c:/program files (x86)/microchip/mplabc32/v2.02/bin/../lib/gcc/pic32mx/4.5.1/../../../../pic32mx/lib/crt0.o

.bev_excpt      0xbfc00380       0x10
 *(.bev_handler)
 .bev_handler   0xbfc00380       0x10 c:/program files (x86)/microchip/mplabc32/v2.02/bin/../lib/gcc/pic32mx/4.5.1/../../../../pic32mx/lib/crt0.o

.dbg_excpt      0xbfc00480        0x0
                0xbfc00480                . = (. + DEFINED (_DEBUGGER)?0x8:0x0)

.dbg_code       0xbfc02000        0x0
                0xbfc02000                . = (. + DEFINED (_DEBUGGER)?_DBG_CODE_SIZE:0x0)

.app_excpt      0x9fc01180       0x10
 *(.gen_handler)
 .gen_handler   0x9fc01180       0x10 c:/program files (x86)/microchip/mplabc32/v2.02/bin/../lib/gcc/pic32mx/4.5.1/../../../../pic32mx/lib/crt0.o

.vector_0       0x9fc01200        0x0
 *(.vector_0)
                0x00000001                ASSERT (((_vector_spacing == 0x0) || (SIZEOF (.vector_0) <= (_vector_spacing << 0x5))), function at exception vector 0 too large)

.vector_1       0x9fc01220        0x0
 *(.vector_1)
                0x00000001                ASSERT (((_vector_spacing == 0x0) || (SIZEOF (.vector_1) <= (_vector_spacing << 0x5))), function at exception vector 1 too large)

.vector_2       0x9fc01240        0x0
 *(.vector_2)
                0x00000001                ASSERT (((_vector_spacing == 0x0) || (SIZEOF (.vector_2) <= (_vector_spacing << 0x5))), function at exception vector 2 too large)

.vector_3       0x9fc01260        0x0
 *(.vector_3)
                0x00000001                ASSERT (((_vector_spacing == 0x0) || (SIZEOF (.vector_3) <= (_vector_spacing << 0x5))), function at exception vector 3 too large)

.vector_4       0x9fc01280        0x0
 *(.vector_4)
                0x00000001                ASSERT (((_vector_spacing == 0x0) || (SIZEOF (.vector_4) <= (_vector_spacing << 0x5))), function at exception vector 4 too large)

.vector_5       0x9fc012a0        0x8
 *(.vector_5)
 .vector_5      0x9fc012a0        0x8 build/default/production/src/gsm.o
                0x00000001                ASSERT (((_vector_spacing == 0x0) || (SIZEOF (.vector_5) <= (_vector_spacing << 0x5))), function at exception vector 5 too large)

.vector_6       0x9fc012c0        0x0
 *(.vector_6)
                0x00000001                ASSERT (((_vector_spacing == 0x0) || (SIZEOF (.vector_6) <= (_vector_spacing << 0x5))), function at exception vector 6 too large)

.vector_7       0x9fc012e0        0x8
 *(.vector_7)
 .vector_7      0x9fc012e0        0x8 build/default/production/src/tor.o
                0x00000001                ASSERT (((_vector_spacing == 0x0) || (SIZEOF (.vector_7) <= (_vector_spacing << 0x5))), function at exception vector 7 too large)

.vector_8       0x9fc01300        0x8
 *(.vector_8)
 .vector_8      0x9fc01300        0x8 build/default/production/src/timers.o
                0x00000001                ASSERT (((_vector_spacing == 0x0) || (SIZEOF (.vector_8) <= (_vector_spacing << 0x5))), function at exception vector 8 too large)

.vector_9       0x9fc01320        0x0
 *(.vector_9)
                0x00000001                ASSERT (((_vector_spacing == 0x0) || (SIZEOF (.vector_9) <= (_vector_spacing << 0x5))), function at exception vector 9 too large)

.vector_10      0x9fc01340        0x0
 *(.vector_10)
                0x00000001                ASSERT (((_vector_spacing == 0x0) || (SIZEOF (.vector_10) <= (_vector_spacing << 0x5))), function at exception vector 10 too large)

.vector_11      0x9fc01360        0x8
 *(.vector_11)
 .vector_11     0x9fc01360        0x8 build/default/production/src/tor.o
                0x00000001                ASSERT (((_vector_spacing == 0x0) || (SIZEOF (.vector_11) <= (_vector_spacing << 0x5))), function at exception vector 11 too large)

.vector_12      0x9fc01380        0x0
 *(.vector_12)
                0x00000001                ASSERT (((_vector_spacing == 0x0) || (SIZEOF (.vector_12) <= (_vector_spacing << 0x5))), function at exception vector 12 too large)

.vector_13      0x9fc013a0        0x0
 *(.vector_13)
                0x00000001                ASSERT (((_vector_spacing == 0x0) || (SIZEOF (.vector_13) <= (_vector_spacing << 0x5))), function at exception vector 13 too large)

.vector_14      0x9fc013c0        0x0
 *(.vector_14)
                0x00000001                ASSERT (((_vector_spacing == 0x0) || (SIZEOF (.vector_14) <= (_vector_spacing << 0x5))), function at exception vector 14 too large)

.vector_15      0x9fc013e0        0x8
 *(.vector_15)
 .vector_15     0x9fc013e0        0x8 build/default/production/src/tor.o
                0x00000001                ASSERT (((_vector_spacing == 0x0) || (SIZEOF (.vector_15) <= (_vector_spacing << 0x5))), function at exception vector 15 too large)

.vector_16      0x9fc01400        0x8
 *(.vector_16)
 .vector_16     0x9fc01400        0x8 build/default/production/src/timers.o
                0x00000001                ASSERT (((_vector_spacing == 0x0) || (SIZEOF (.vector_16) <= (_vector_spacing << 0x5))), function at exception vector 16 too large)

.vector_17      0x9fc01420        0x8
 *(.vector_17)
 .vector_17     0x9fc01420        0x8 build/default/production/src/rtc.o
                0x00000001                ASSERT (((_vector_spacing == 0x0) || (SIZEOF (.vector_17) <= (_vector_spacing << 0x5))), function at exception vector 17 too large)

.vector_18      0x9fc01440        0x0
 *(.vector_18)
                0x00000001                ASSERT (((_vector_spacing == 0x0) || (SIZEOF (.vector_18) <= (_vector_spacing << 0x5))), function at exception vector 18 too large)

.vector_19      0x9fc01460        0x8
 *(.vector_19)
 .vector_19     0x9fc01460        0x8 build/default/production/src/tor.o
                0x00000001                ASSERT (((_vector_spacing == 0x0) || (SIZEOF (.vector_19) <= (_vector_spacing << 0x5))), function at exception vector 19 too large)

.vector_20      0x9fc01480        0x0
 *(.vector_20)
                0x00000001                ASSERT (((_vector_spacing == 0x0) || (SIZEOF (.vector_20) <= (_vector_spacing << 0x5))), function at exception vector 20 too large)

.vector_21      0x9fc014a0        0x8
 *(.vector_21)
 .vector_21     0x9fc014a0        0x8 build/default/production/src/ads7846.o
                0x00000001                ASSERT (((_vector_spacing == 0x0) || (SIZEOF (.vector_21) <= (_vector_spacing << 0x5))), function at exception vector 21 too large)

.vector_22      0x9fc014c0        0x0
 *(.vector_22)
                0x00000001                ASSERT (((_vector_spacing == 0x0) || (SIZEOF (.vector_22) <= (_vector_spacing << 0x5))), function at exception vector 22 too large)

.vector_23      0x9fc014e0        0x0
 *(.vector_23)
                0x00000001                ASSERT (((_vector_spacing == 0x0) || (SIZEOF (.vector_23) <= (_vector_spacing << 0x5))), function at exception vector 23 too large)

.vector_24      0x9fc01500        0x8
 *(.vector_24)
 .vector_24     0x9fc01500        0x8 build/default/production/src/uart.o
                0x00000001                ASSERT (((_vector_spacing == 0x0) || (SIZEOF (.vector_24) <= (_vector_spacing << 0x5))), function at exception vector 24 too large)

.vector_25      0x9fc01520        0x0
 *(.vector_25)
                0x00000001                ASSERT (((_vector_spacing == 0x0) || (SIZEOF (.vector_25) <= (_vector_spacing << 0x5))), function at exception vector 25 too large)

.vector_26      0x9fc01540        0x0
 *(.vector_26)
                0x00000001                ASSERT (((_vector_spacing == 0x0) || (SIZEOF (.vector_26) <= (_vector_spacing << 0x5))), function at exception vector 26 too large)

.vector_27      0x9fc01560        0x0
 *(.vector_27)
                0x00000001                ASSERT (((_vector_spacing == 0x0) || (SIZEOF (.vector_27) <= (_vector_spacing << 0x5))), function at exception vector 27 too large)

.vector_28      0x9fc01580        0x0
 *(.vector_28)
                0x00000001                ASSERT (((_vector_spacing == 0x0) || (SIZEOF (.vector_28) <= (_vector_spacing << 0x5))), function at exception vector 28 too large)

.vector_29      0x9fc015a0        0x0
 *(.vector_29)
                0x00000001                ASSERT (((_vector_spacing == 0x0) || (SIZEOF (.vector_29) <= (_vector_spacing << 0x5))), function at exception vector 29 too large)

.vector_30      0x9fc015c0        0x0
 *(.vector_30)
                0x00000001                ASSERT (((_vector_spacing == 0x0) || (SIZEOF (.vector_30) <= (_vector_spacing << 0x5))), function at exception vector 30 too large)

.vector_31      0x9fc015e0        0x8
 *(.vector_31)
 .vector_31     0x9fc015e0        0x8 build/default/production/src/uart.o
                0x00000001                ASSERT (((_vector_spacing == 0x0) || (SIZEOF (.vector_31) <= (_vector_spacing << 0x5))), function at exception vector 31 too large)

.vector_32      0x9fc01600        0x8
 *(.vector_32)
 .vector_32     0x9fc01600        0x8 build/default/production/src/uart.o
                0x00000001                ASSERT (((_vector_spacing == 0x0) || (SIZEOF (.vector_32) <= (_vector_spacing << 0x5))), function at exception vector 32 too large)

.vector_33      0x9fc01620        0x0
 *(.vector_33)
                0x00000001                ASSERT (((_vector_spacing == 0x0) || (SIZEOF (.vector_33) <= (_vector_spacing << 0x5))), function at exception vector 33 too large)

.vector_34      0x9fc01640        0x0
 *(.vector_34)
                0x00000001                ASSERT (((_vector_spacing == 0x0) || (SIZEOF (.vector_34) <= (_vector_spacing << 0x5))), function at exception vector 34 too large)

.vector_35      0x9fc01660        0x0
 *(.vector_35)
                0x00000001                ASSERT (((_vector_spacing == 0x0) || (SIZEOF (.vector_35) <= (_vector_spacing << 0x5))), function at exception vector 35 too large)

.vector_36      0x9fc01680        0x0
 *(.vector_36)
                0x00000001                ASSERT (((_vector_spacing == 0x0) || (SIZEOF (.vector_36) <= (_vector_spacing << 0x5))), function at exception vector 36 too large)

.vector_37      0x9fc016a0        0x0
 *(.vector_37)
                0x00000001                ASSERT (((_vector_spacing == 0x0) || (SIZEOF (.vector_37) <= (_vector_spacing << 0x5))), function at exception vector 37 too large)

.vector_38      0x9fc016c0        0x0
 *(.vector_38)
                0x00000001                ASSERT (((_vector_spacing == 0x0) || (SIZEOF (.vector_38) <= (_vector_spacing << 0x5))), function at exception vector 38 too large)

.vector_39      0x9fc016e0        0x0
 *(.vector_39)
                0x00000001                ASSERT (((_vector_spacing == 0x0) || (SIZEOF (.vector_39) <= (_vector_spacing << 0x5))), function at exception vector 39 too large)

.vector_40      0x9fc01700        0x0
 *(.vector_40)
                0x00000001                ASSERT (((_vector_spacing == 0x0) || (SIZEOF (.vector_40) <= (_vector_spacing << 0x5))), function at exception vector 40 too large)

.vector_41      0x9fc01720        0x0
 *(.vector_41)
                0x00000001                ASSERT (((_vector_spacing == 0x0) || (SIZEOF (.vector_41) <= (_vector_spacing << 0x5))), function at exception vector 41 too large)

.vector_42      0x9fc01740        0x0
 *(.vector_42)
                0x00000001                ASSERT (((_vector_spacing == 0x0) || (SIZEOF (.vector_42) <= (_vector_spacing << 0x5))), function at exception vector 42 too large)

.vector_43      0x9fc01760        0x0
 *(.vector_43)
                0x00000001                ASSERT (((_vector_spacing == 0x0) || (SIZEOF (.vector_43) <= (_vector_spacing << 0x5))), function at exception vector 43 too large)

.vector_44      0x9fc01780        0x0
 *(.vector_44)
                0x00000001                ASSERT (((_vector_spacing == 0x0) || (SIZEOF (.vector_44) <= (_vector_spacing << 0x5))), function at exception vector 44 too large)

.vector_45      0x9fc017a0        0x0
 *(.vector_45)
                0x00000001                ASSERT (((_vector_spacing == 0x0) || (SIZEOF (.vector_45) <= (_vector_spacing << 0x5))), function at exception vector 45 too large)

.vector_46      0x9fc017c0        0x0
 *(.vector_46)
                0x00000001                ASSERT (((_vector_spacing == 0x0) || (SIZEOF (.vector_46) <= (_vector_spacing << 0x5))), function at exception vector 46 too large)

.vector_47      0x9fc017e0        0x0
 *(.vector_47)
                0x00000001                ASSERT (((_vector_spacing == 0x0) || (SIZEOF (.vector_47) <= (_vector_spacing << 0x5))), function at exception vector 47 too large)

.vector_48      0x9fc01800        0x0
 *(.vector_48)
                0x00000001                ASSERT (((_vector_spacing == 0x0) || (SIZEOF (.vector_48) <= (_vector_spacing << 0x5))), function at exception vector 48 too large)

.vector_49      0x9fc01820        0x8
 *(.vector_49)
 .vector_49     0x9fc01820        0x8 build/default/production/src/uart.o
                0x00000001                ASSERT (((_vector_spacing == 0x0) || (SIZEOF (.vector_49) <= (_vector_spacing << 0x5))), function at exception vector 49 too large)

.vector_50      0x9fc01840        0x0
 *(.vector_50)
                0x00000001                ASSERT (((_vector_spacing == 0x0) || (SIZEOF (.vector_50) <= (_vector_spacing << 0x5))), function at exception vector 50 too large)

.vector_51      0x9fc01860        0x8
 *(.vector_51)
 .vector_51     0x9fc01860        0x8 build/default/production/src/uart.o
                0x00000001                ASSERT (((_vector_spacing == 0x0) || (SIZEOF (.vector_51) <= (_vector_spacing << 0x5))), function at exception vector 51 too large)

.vector_52      0x9fc01880        0x0
 *(.vector_52)
                0x00000001                ASSERT (((_vector_spacing == 0x0) || (SIZEOF (.vector_52) <= (_vector_spacing << 0x5))), function at exception vector 52 too large)

.vector_53      0x9fc018a0        0x0
 *(.vector_53)
                0x00000001                ASSERT (((_vector_spacing == 0x0) || (SIZEOF (.vector_53) <= (_vector_spacing << 0x5))), function at exception vector 53 too large)

.vector_54      0x9fc018c0        0x0
 *(.vector_54)
                0x00000001                ASSERT (((_vector_spacing == 0x0) || (SIZEOF (.vector_54) <= (_vector_spacing << 0x5))), function at exception vector 54 too large)

.vector_55      0x9fc018e0        0x0
 *(.vector_55)
                0x00000001                ASSERT (((_vector_spacing == 0x0) || (SIZEOF (.vector_55) <= (_vector_spacing << 0x5))), function at exception vector 55 too large)

.vector_56      0x9fc01900        0x0
 *(.vector_56)
                0x00000001                ASSERT (((_vector_spacing == 0x0) || (SIZEOF (.vector_56) <= (_vector_spacing << 0x5))), function at exception vector 56 too large)

.vector_57      0x9fc01920        0x0
 *(.vector_57)
                0x00000001                ASSERT (((_vector_spacing == 0x0) || (SIZEOF (.vector_57) <= (_vector_spacing << 0x5))), function at exception vector 57 too large)

.vector_58      0x9fc01940        0x0
 *(.vector_58)
                0x00000001                ASSERT (((_vector_spacing == 0x0) || (SIZEOF (.vector_58) <= (_vector_spacing << 0x5))), function at exception vector 58 too large)

.vector_59      0x9fc01960        0x0
 *(.vector_59)
                0x00000001                ASSERT (((_vector_spacing == 0x0) || (SIZEOF (.vector_59) <= (_vector_spacing << 0x5))), function at exception vector 59 too large)

.vector_60      0x9fc01980        0x0
 *(.vector_60)
                0x00000001                ASSERT (((_vector_spacing == 0x0) || (SIZEOF (.vector_60) <= (_vector_spacing << 0x5))), function at exception vector 60 too large)

.vector_61      0x9fc019a0        0x0
 *(.vector_61)
                0x00000001                ASSERT (((_vector_spacing == 0x0) || (SIZEOF (.vector_61) <= (_vector_spacing << 0x5))), function at exception vector 61 too large)

.vector_62      0x9fc019c0        0x0
 *(.vector_62)
                0x00000001                ASSERT (((_vector_spacing == 0x0) || (SIZEOF (.vector_62) <= (_vector_spacing << 0x5))), function at exception vector 62 too large)

.vector_63      0x9fc019e0        0x0
 *(.vector_63)
                0x00000001                ASSERT (((_vector_spacing == 0x0) || (SIZEOF (.vector_63) <= (_vector_spacing << 0x5))), function at exception vector 63 too large)

.startup
 *(.startup)

.text
 *(.stub .gnu.linkonce.t.*)
 *(.text.*personality*)
 *(.mips16.fn.*)
 *(.mips16.call.*)
 *(.gnu.warning)

.rodata         0x9d000000       0x48
 *(.rodata.* .gnu.linkonce.r.*)
 .rodata.f5pow  0x9d000000       0x48 c:/program files (x86)/microchip/mplabc32/v2.02/bin/../lib/gcc/pic32mx/4.5.1/../../../../pic32mx/lib\libe.a(_strtod.o)
 *(.rodata1)
                0x9d000048                . = ALIGN (0x4)

.sdata2         0x9d000048        0x0
 *(.sdata2 .sdata2.* .gnu.linkonce.s2.*)
                0x9d000048                . = ALIGN (0x4)

.sbss2          0x9d000048        0x0
 *(.sbss2 .sbss2.* .gnu.linkonce.sb2.*)
                0x9d000048                . = ALIGN (0x4)

.eh_frame_hdr
 *(.eh_frame_hdr)

.eh_frame
 *(.eh_frame)

.dbg_data       0xa0000000        0x0
                0xa0000000                . = (. + DEFINED (_DEBUGGER)?0x200:0x0)

.persist        0xa0000000        0x0
                0xa0000000                _persist_begin = .
 *(.persist .persist.*)
                0xa0000000                . = ALIGN (0x4)
                0xa0000000                _persist_end = .

.eh_frame       0xa0000000       0x3c
 *(.eh_frame)
 .eh_frame      0xa0000000       0x28 c:/program files (x86)/microchip/mplabc32/v2.02/bin/../lib/gcc/pic32mx/4.5.1\libgcc.a(_udivdi3.o)
 .eh_frame      0xa0000028       0x14 c:/program files (x86)/microchip/mplabc32/v2.02/bin/../lib/gcc/pic32mx/4.5.1\libgcc.a(_umoddi3.o)
                                 0x28 (size before relaxing)
                0xa000003c                . = .
                0xa0008030                _gp = (ALIGN (0x10) + 0x7ff0)

.got
 *(.got.plt)
 *(.got)

.sdata          0xa000003c       0x44
                0xa000003c                _sdata_begin = .
 *(.sdata .sdata.* .gnu.linkonce.s.*)
 .sdata         0xa000003c       0x28 build/default/production/src/ads7846.o
                0xa000003c                _calXMin
                0xa000003e                _calXMax
                0xa0000040                _calYMin
                0xa0000042                _calYMax
                0xa0000044                adcOld
                0xa0000046                adcTemp
                0xa0000048                adcX
                0xa000004a                adcY
                0xa000004c                adcZ1
                0xa000004e                adcZ2
                0xa0000050                adcRt
                0xa0000052                hyst
                0xa0000054                adcX1
                0xa0000056                adcY1
                0xa0000058                tempdelay
                0xa000005c                IRQ_OK
 .sdata         0xa0000064        0x1 build/default/production/src/can.o
                0xa0000064                can_MAEConversion
 .sdata         0xa0000065        0x1 build/default/production/src/graphics.o
 *fill*         0xa0000066        0x2 00
 .sdata         0xa0000068        0x4 build/default/production/src/gsm.o
                0xa0000068                gsm_pListeConfigGPRS
 .sdata         0xa000006c        0x4 build/default/production/src/main.o
                0xa000006c                gSystemClock
 .sdata         0xa0000070        0x8 build/default/production/src/secteur.o
                0xa0000070                Sec_NbrReg
 .sdata         0xa0000078        0x4 c:/program files (x86)/microchip/mplabc32/v2.02/bin/../lib/gcc/pic32mx/4.5.1/../../../../pic32mx/lib\libc.a(_iob.o)
                0xa0000078                _Files
 .sdata         0xa000007c        0x4 c:/program files (x86)/microchip/mplabc32/v2.02/bin/../lib/gcc/pic32mx/4.5.1/../../../../pic32mx/lib\libc.a(c32_uart.o)
                0xa000007c                __C32_UART
                0xa0000080                _sdata_end = .

.lit8
 *(.lit8)

.lit4
 *(.lit4)
                0xa0000080                . = ALIGN (0x4)
                0xa0000080                _data_end = .
                0xa0000080                _bss_begin = .

.sbss           0xa0000080      0x2c0
                0xa0000080                _sbss_begin = .
 *(.dynsbss)
 *(.sbss .sbss.* .gnu.linkonce.sb.*)
 .sbss          0xa0000080        0x4 build/default/production/src/ads7846.o
                0xa0000080                adcPot
                0xa0000082                nbrOffset
 .sbss          0xa0000084        0x8 build/default/production/src/can.o
                0xa0000084                can_NumEntreeDirect
                0xa0000088                can_NumEntreeMux
 .sbss          0xa000008c        0x2 build/default/production/src/graphics.o
 *fill*         0xa000008e        0x2 00
 .sbss          0xa0000090       0x10 build/default/production/src/gsm.o
                0xa0000090                gsm_MAEUDP
                0xa0000091                gsm_GPRSProblem
                0xa0000094                gsm_PlageEnvoi
                0xa0000098                gsm_NbrSecteurUDPH
                0xa000009c                gsm_NumSecteurUDPH
 .sbss          0xa00000a0        0x4 build/default/production/src/main.o
                0xa00000a0                ReadDataMicro2MAE
 .sbss          0xa00000a4        0x4 build/default/production/src/relais.o
                0xa00000a4                MAE_RodageRelais
 .sbss          0xa00000a8        0x4 build/default/production/src/s1d13700.o
                0xa00000a8                CptMax
 .sbss          0xa00000ac       0x14 build/default/production/src/uart.o
                0xa00000ac                uart1_RX_gCompteur
                0xa00000b0                uart2_RX_gCompteur
                0xa00000b4                uart3_RX_gCompteur
                0xa00000b8                uart4_RX_gCompteur
                0xa00000bc                uart5_RX_gCompteur
 .sbss          0xa00000c0        0x4 build/default/production/src/historique.o
                0xa00000c0                historique_CptHisto
 .sbss          0xa00000c4        0x4 c:/program files (x86)/microchip/mplabc32/v2.02/bin/../lib/gcc/pic32mx/4.5.1/../../../../pic32mx/lib\libc.a(ctime.o)
                0xa00000c4                time_zone
 .sbss          0xa00000c8        0x1 c:/program files (x86)/microchip/mplabc32/v2.02/bin/../lib/gcc/pic32mx/4.5.1/../../../../pic32mx/lib\libc.a(_iob.o)
                0xa00000c8                _outdone
 *fill*         0xa00000c9        0x3 00
 .sbss          0xa00000cc        0x4 c:/program files (x86)/microchip/mplabc32/v2.02/bin/../lib/gcc/pic32mx/4.5.1/../../../../pic32mx/lib\libc.a(errno.o)
                0xa00000cc                errno
 *(.scommon)
 .scommon       0xa00000d0        0x5 build/default/production/src/ads7846.o
                0xa00000d0                Rt
                0xa00000d4                affEtat
 *fill*         0xa00000d5        0x3 00
 .scommon       0xa00000d8        0x8 build/default/production/src/can.o
                0xa00000d8                can_OCtet2flags
                0xa00000dc                canbit
 .scommon       0xa00000e0       0x34 build/default/production/src/clock.o
                0xa00000e0                clock_min
                0xa00000e4                err_code
                0xa00000e8                clock_mon
                0xa00000ec                clock_mday
                0xa00000f0                clock_wday
                0xa00000f4                clock_sec
                0xa00000f8                clock_isdst
                0xa00000fc                clock_yday
                0xa0000100                bitclock
                0xa0000104                clock_year
                0xa0000108                Clock_OldDateHeure
                0xa000010c                clock_Lastdt
                0xa0000110                clock_hour
 .scommon       0xa0000114       0x27 build/default/production/src/comsbusmaitre.o
                0xa0000114                comsbusmaitre_Uart
                0xa0000118                comsbusmaitre_SbusNbr
                0xa000011c                comsbusmaitre_SbusStation
                0xa0000120                comsbusmaitre_UartMode
                0xa0000124                comsbusmaitre_SbusType
                0xa0000128                comsbusmaitre_TOReponse
                0xa0000130                comsbusmaitre_MAESbusMaitre
                0xa0000134                comsbusmaitre_SbusRq
                0xa0000138                comsbusmaitre_SbusErrCom
 *fill*         0xa000013b        0x1 00
 .scommon       0xa000013c       0x14 build/default/production/src/graphics.o
                0xa000013c                graphics_cursorX
                0xa000013e                graphics_fontFirstChar
                0xa0000140                graphics_cursorY
                0xa0000142                graphics_fontLastChar
                0xa0000144                graphics_font
                0xa0000148                graphics_fontOrientation
                0xa000014a                graphics_fontHeight
                0xa000014c                graphics_lineThickness
                0xa000014e                graphics_LineType
 .scommon       0xa0000150       0x14 build/default/production/src/gsm+.o
                0xa0000150                gsmplus_aMsgAlarmePeriphe
                0xa0000154                gsmplus_MAEAlarmePeriphe
                0xa0000158                gsmplus_aCfgAlrmePeriphe
                0xa000015c                gsmplus_CfgAlrmePeriphe
                0xa0000160                gsmplus_AlarmePeripheEntreeEtat
                0xa0000162                gsmplus_AlarmePeripheAnaEtat
 *fill*         0xa0000164        0x4 00
 .scommon       0xa0000168      0x167 build/default/production/src/gsm.o
                0xa0000168                gsm_pMsgAlarmeToSend
                0xa000016c                gsm_AddresseSaveRamEnvoi
                0xa0000170                gsm_aMsgEntrant
                0xa0000174                gsm_pParametre
                0xa0000178                gsm_UDPNumIP
                0xa000017c                gsm_DataVarUDP
                0xa0000180                gsm_aMsgAlarme
                0xa0000184                gsm_MAEHistoRam
                0xa0000188                gsm_IndexEnvoiUDPH
                0xa000018c                gsm_UDPCptBit
                0xa0000190                gsm_DataAlarme
                0xa0000198                gsm_MAEUDPR
                0xa000019c                gsm_aInitCfgSaveRam
                0xa00001a0                gsm_aHommetMort
                0xa00001a4                gsm_aSMSAlarme
                0xa00001a8                gsm_CptVarUDP
                0xa00001b0                gsm_AlarmeOk
                0xa00001b8                gsm_MAESMSEntrant
                0xa00001b9                gsm_MAE
                0xa00001ba                gsm_QualiteReseau
                0xa00001bb                gsm_NbrVarRapport
                0xa00001bc                gsm_aInitCfgAlrmeEntree
                0xa00001c0                gsm_MAEDateHeure
                0xa00001c4                gsm_aUDPRPort
                0xa00001c8                gsm_aUDPCfg
                0xa00001cc                gsm_SonneAvantEnvoiSMS
                0xa00001d0                gsm_aMsgSortantL
                0xa00001d4                gsm_CptRegHistoRam
                0xa00001d5                gsm_MAEInitPwr
                0xa00001d8                gsm_aUser
                0xa00001dc                gsm_aPW
                0xa00001e0                gsm_aAPN
                0xa00001e4                gsm_aInitCfgAlrmeAna
                0xa00001e8                gsm_InfoHisto
                0xa00001ec                gsm_IndiceTeleAlarme
                0xa00001ed                gsm_MAESbus
                0xa00001ee                gsm_NbrVarUDP
                0xa00001f0                gsm_aInitCfgSave
                0xa00001f4                gsm_MAETraittementSMS
                0xa00001f8                gsm_aMsgRapport
                0xa00001fc                gsm_UDPCptOctet
                0xa0000200                gsm_MAECondEnvoiUDPR
                0xa0000204                gsm_GPRSCnxNum
                0xa0000208                gsm_aSMSRapport
                0xa000020c                gsm_HommetMort
                0xa0000210                gsm_aMsgSortantE
                0xa0000214                gsm_aTCPPort
                0xa0000218                gsm_aSonneAvantEnvoiSMS
                0xa000021c                gsm_CptNbrLineRapport
                0xa0000220                gsm_aUDPHPort
                0xa0000224                gsm_aTOSKT
                0xa0000228                gsm_CptConfig
                0xa000022c                gsm_aNomEntree
                0xa0000230                gsm_aNomSortie
                0xa0000234                gsm_OldEtatFrqEnvoiUDPR
                0xa0000238                gsm_MAERapport
                0xa000023c                gsm_aInitAlarme
                0xa0000240                gsm_aInitSMSRapport
                0xa0000244                gsm_CptAlarme
                0xa0000245                gsm_IndexTeleRapport
                0xa0000246                gsm_NbrEssaiEnvoi
                0xa0000248                gsm_aInitSMSEntrant
                0xa000024c                gsm_AddresseSaveRamFlash
                0xa0000250                gsm_aNomStation
                0xa0000254                gsm_TailleTrame
                0xa0000258                gsm_CptNbrVarRapport
                0xa000025c                gsm_NbrRegSaveRAMUDPH
                0xa0000260                gsm_LastIndexEnvoiUDPH
                0xa0000264                gsm_CptVarHistoRam
                0xa0000265                gsm_MAERequette
                0xa0000266                gsm_NbrSMSEntrant
                0xa0000268                gsm_NbrRegSaveSecUDPH
                0xa000026c                gsm_IndiceTeleUser
                0xa000026d                gsm_MAEInitCfg
                0xa0000270                gsm_GPRSDataNbr
                0xa0000274                gsm_MAEInit
                0xa0000278                gsm_aNomAna
                0xa000027c                gsm_InfoHistoRam
                0xa0000280                gsm_MAEAlarme
                0xa0000282                gsm_NumMessage
                0xa0000284                gsm_AddresseSaveRam
                0xa0000288                gsm_CptVitesse
                0xa000028c                gsm_aSMSEntrant
                0xa0000290                gsm_CptSMSEntrant
                0xa0000291                gsm_NbrSMSRapport
                0xa0000294                gsm_aInitEntetAlarme
                0xa0000298                gsm_EntetAlarme
                0xa000029c                gsm_NbrSaveRAM
                0xa00002a0                gsm_NbrAlarme
                0xa00002a1                gsm_MAESaveH
                0xa00002a4                gsm_pCommande
                0xa00002a8                gsm_aInitUDPCfg
                0xa00002ac                gsm_NumAlarme
                0xa00002ad                gsm_NombreErreur
                0xa00002b0                gsm_NbrSaveRAMUDPH
                0xa00002b4                gsm_pMsgUserToSend
                0xa00002b8                gsm_MAECmd
                0xa00002bc                gsmbit
                0xa00002c0                gsm_NumSocket
                0xa00002c4                gsm_NbrVarSaveRam
                0xa00002c8                gsm_aCfgSaveRam
                0xa00002cc                gsm_UDPPort
                0xa00002ce                gsm_NombreReset
 *fill*         0xa00002cf        0x1 00
 .scommon       0xa00002d0        0x8 build/default/production/src/kalman.o
                0xa00002d0                Echant_TabFiltre
 .scommon       0xa00002d8        0xc build/default/production/src/main.o
                0xa00002d8                gEtatApp
                0xa00002dc                gUart2Mode
                0xa00002dd                gUart1Mode
                0xa00002de                gSysEtat
                0xa00002df                gNumStation
                0xa00002e0                mainbit
 .scommon       0xa00002e4        0x8 build/default/production/src/relais.o
                0xa00002e4                CptRepetition
                0xa00002e8                CptSorties
 .scommon       0xa00002ec        0x1 build/default/production/src/rtc.o
                0xa00002ec                err_flg
 *fill*         0xa00002ed        0x3 00
 .scommon       0xa00002f0        0x5 build/default/production/src/s1d13700.o
                0xa00002f0                s1d13700_color
                0xa00002f4                temp
 *fill*         0xa00002f5        0x3 00
 .scommon       0xa00002f8        0x8 build/default/production/src/secteur.o
                0xa00002f8                Sec_DemandeEcriture
                0xa00002fc                Sec_pParam
 .scommon       0xa0000300       0x10 build/default/production/src/slvxsbus.o
                0xa0000300                Uart1_AdresseFin
                0xa0000304                slvbit
                0xa0000308                Uart1_AdresseDebut
                0xa000030c                sbusoctetflags
 .scommon       0xa0000310        0x1 build/default/production/src/timers.o
                0xa0000310                timers2_Tick
 *fill*         0xa0000311        0x3 00
 .scommon       0xa0000314        0x4 build/default/production/src/tor.o
                0xa0000314                torbit
 .scommon       0xa0000318        0x4 build/default/production/src/uart.o
                0xa0000318                uartbit
 .scommon       0xa000031c       0x14 build/default/production/src/variables.o
                0xa000031c                regflag_i
                0xa0000320                bitvariable
                0xa0000324                EtatCompteurs
                0xa0000328                OctetToFlags
                0xa000032c                uLongFloat
 .scommon       0xa0000330        0xc build/default/production/src/terminal.o
                0xa0000330                Msg
                0xa0000338                trmbit
 .scommon       0xa000033c        0x4 build/default/production/src/eauglycolee.o
                0xa000033c                BitMCEGLBit
                0xa0000340                _sbss_end = .

.bss            0xa0000340    0x109cc
 *(.dynbss)
 *(COMMON)
 COMMON         0xa0000340     0x1b0c build/default/production/src/comsbusmaitre.o
                0xa0000340                comsbusmaitre_SbusBuffer
                0xa0001b40                comsbusmaitre_SbusAdresse
                0xa0001e40                comsbusmaitre_bit
 COMMON         0xa0001e4c     0x1000 build/default/production/src/config.o
                0xa0001e4c                config_Mem
 COMMON         0xa0002e4c     0x1ef8 build/default/production/src/gsm.o
                0xa0002e4c                gsm_FormatHistoRam
                0xa0002e60                gsm_MessageSMS
                0xa0002f04                gsm_TelephoneUser
                0xa0002f14                gsm_ChaineTemps
                0xa0002fb8                gsm_TelephoneSMS
                0xa0002fc8                gsm_TelephoneAppel
                0xa0002fd8                gsm_ReponseSMS
                0xa000307c                gsm_Chaine
                0xa000317c                gsm_GPRSData
                0xa000357c                gsm_aNumTelephone
                0xa000358c                gsm_MemoirRam
                0xa000458c                gsm_aAdresseIP
                0xa000459c                gsm_BufferTCPUDP
                0xa0004b9c                gsm_MemoirPaquet
                0xa0004c1c                gsm_InfoSMSEntrant
                0xa0004c30                gsm_TrameSIM32
                0xa0004d30                gsm_DataVarRapport
 COMMON         0xa0004d44      0x7f4 build/default/production/src/main.o
                0xa0004d44                FifoAn
                0xa0005104                FifoETor
                0xa00051a4                ETor
                0xa0005224                Ana
                0xa0005524                SecteurpParam
 COMMON         0xa0005538      0x330 build/default/production/src/mtrxsbus.o
                0xa0005538                bitmtrxsbusuart
                0xa0005544                mtrxsbusuart
 COMMON         0xa0005868     0x2a30 build/default/production/src/s1d13700.o
                0xa0005868                s1d13700_MemImage
                0xa0007de8                s1d13700_EtatMemImage
 COMMON         0xa0008298     0x4010 build/default/production/src/secteur.o
                0xa0008298                Sec_Image
                0xa000c298                Sec_pImageFlag
 COMMON         0xa000c2a8      0x500 build/default/production/src/slvxsbus.o
                0xa000c2a8                slv_AdresseBuf
                0xa000c3a8                slvxsbus_Buffer
 COMMON         0xa000c7a8       0x20 build/default/production/src/timers.o
                0xa000c7a8                timer4_TV
 COMMON         0xa000c7c8       0x7c build/default/production/src/tor.o
                0xa000c7c8                tor_NbrImp
                0xa000c7d8                tor_TempsMaxEntreImp
                0xa000c7e8                tor_MAESortie
                0xa000c7f4                tor_CptIt
                0xa000c804                tor_CurVal
                0xa000c814                tor_TempsMinEntreImp
                0xa000c824                tor_CnsgNImp
                0xa000c834                tor_TempsEchant
 COMMON         0xa000c844     0x41c0 build/default/production/src/variables.o
                0xa000c844                Timers
                0xa000d844                Compteurs
                0xa000d884                Flags
                0xa000da04                Registres
 COMMON         0xa0010a04      0x108 build/default/production/src/historique.o
                0xa0010a04                historique_bit
                0xa0010a10                historique_AddresseSave
                0xa0010a1c                historique_DataSave
 COMMON         0xa0010b0c      0x200 build/default/production/src/terminal.o
                0xa0010b0c                terminal_Chaine
                0xa0010d0c                . = ALIGN (0x4)
                0xa0010d0c                . = ALIGN (0x4)
                0xa0010d0c                _end = .
                0xa0010d0c                _bss_end = .
                0x00020000                _bmxdudba_address = 0x20000
                0x00020000                _bmxdupba_address = 0x20000

/DISCARD/
 *(.pdr)
 *(.reginfo)
 *(.rel.dyn)
 *(.note.GNU-stack)
 *(.note.GNU-stack)
 *(.gnu_debuglink)
 *(.gnu.lto_*)
 *(.discard)

.stab
 *(.stab)

.stabstr
 *(.stabstr)

.stab.excl
 *(.stab.excl)

.stab.exclstr
 *(.stab.exclstr)

.stab.index
 *(.stab.index)

.stab.indexstr
 *(.stab.indexstr)

.comment        0x00000000      0x3d0
 *(.comment)
 .comment       0x00000000       0x51 build/default/production/src/ads7846.o
                                 0x52 (size before relaxing)
 .comment       0x00000000       0x52 build/default/production/src/anatype.o
 .comment       0x00000000       0x52 build/default/production/src/can.o
 .comment       0x00000000       0x52 build/default/production/src/clock.o
 .comment       0x00000000       0x52 build/default/production/src/comsbusmaitre.o
 .comment       0x00000000       0x52 build/default/production/src/config.o
 .comment       0x00000000       0x52 build/default/production/src/echantillonnage.o
 .comment       0x00000000       0x52 build/default/production/src/exceptions.o
 .comment       0x00000000       0x52 build/default/production/src/font.o
 .comment       0x00000000       0x52 build/default/production/src/graphics.o
 .comment       0x00000000       0x52 build/default/production/src/gsm+.o
 .comment       0x00000000       0x52 build/default/production/src/gsm.o
 .comment       0x00000000       0x52 build/default/production/src/image.o
 .comment       0x00000000       0x52 build/default/production/src/kalman.o
 .comment       0x00000000       0x52 build/default/production/src/main.o
 .comment       0x00000000       0x52 build/default/production/src/mtrxsbus.o
 .comment       0x00000000       0x52 build/default/production/src/pwm.o
 .comment       0x00000000       0x52 build/default/production/src/relais.o
 .comment       0x00000000       0x52 build/default/production/src/rtc.o
 .comment       0x00000000       0x52 build/default/production/src/s1d13700.o
 .comment       0x00000000       0x52 build/default/production/src/secteur.o
 .comment       0x00000000       0x52 build/default/production/src/slvxsbus.o
 .comment       0x00000000       0x52 build/default/production/src/timers.o
 .comment       0x00000000       0x52 build/default/production/src/tor.o
 .comment       0x00000000       0x52 build/default/production/src/uart.o
 .comment       0x00000000       0x52 build/default/production/src/variables.o
 .comment       0x00000000       0x52 build/default/production/src/historique.o
 .comment       0x00000000       0x52 build/default/production/src/terminal.o
 .comment       0x00000000       0x52 build/default/production/src/eauglycolee.o
 .comment       0x00000000       0x52 c:/program files (x86)/microchip/mplabc32/v2.02/bin/../lib/gcc/pic32mx/4.5.1\libgcc.a(floatunsisf.o)
 .comment       0x00000051       0x55 c:/program files (x86)/microchip/mplabc32/v2.02/bin/../lib/gcc/pic32mx/4.5.1/../../../../pic32mx/lib\libc.a(memset.o)
                                 0x56 (size before relaxing)
 .comment       0x000000a6       0x55 c:/program files (x86)/microchip/mplabc32/v2.02/bin/../lib/gcc/pic32mx/4.5.1/../../../../pic32mx/lib\libc.a(strcmp.o)
                                 0x56 (size before relaxing)
 .comment       0x000000fb       0x55 c:/program files (x86)/microchip/mplabc32/v2.02/bin/../lib/gcc/pic32mx/4.5.1/../../../../pic32mx/lib\libc.a(strcpy.o)
                                 0x56 (size before relaxing)
 .comment       0x00000150       0x55 c:/program files (x86)/microchip/mplabc32/v2.02/bin/../lib/gcc/pic32mx/4.5.1/../../../../pic32mx/lib\libc.a(strlen.o)
                                 0x56 (size before relaxing)
 .comment       0x00000000       0x52 c:/program files (x86)/microchip/mplabc32/v2.02/bin/../lib/gcc/pic32mx/4.5.1/../../../../pic32mx/lib\libc.a(atoi.o)
 .comment       0x00000000       0x52 c:/program files (x86)/microchip/mplabc32/v2.02/bin/../lib/gcc/pic32mx/4.5.1/../../../../pic32mx/lib\libc.a(atol.o)
 .comment       0x00000000       0x52 c:/program files (x86)/microchip/mplabc32/v2.02/bin/../lib/gcc/pic32mx/4.5.1/../../../../pic32mx/lib\libc.a(ctime.o)
 .comment       0x000001a5       0x4e c:/program files (x86)/microchip/mplabc32/v2.02/bin/../lib/gcc/pic32mx/4.5.1/../../../../pic32mx/lib\libc.a(ctype.o)
                                 0xa0 (size before relaxing)
 .comment       0x000001f3       0x4f c:/program files (x86)/microchip/mplabc32/v2.02/bin/../lib/gcc/pic32mx/4.5.1/../../../../pic32mx/lib\libc.a(ctypef.o)
                                 0xa1 (size before relaxing)
 .comment       0x00000000       0x52 c:/program files (x86)/microchip/mplabc32/v2.02/bin/../lib/gcc/pic32mx/4.5.1/../../../../pic32mx/lib\libc.a(mktime.o)
 .comment       0x00000000       0x52 c:/program files (x86)/microchip/mplabc32/v2.02/bin/../lib/gcc/pic32mx/4.5.1/../../../../pic32mx/lib\libc.a(strcat.o)
 .comment       0x00000000       0x52 c:/program files (x86)/microchip/mplabc32/v2.02/bin/../lib/gcc/pic32mx/4.5.1/../../../../pic32mx/lib\libc.a(strchr.o)
 .comment       0x00000000       0x52 c:/program files (x86)/microchip/mplabc32/v2.02/bin/../lib/gcc/pic32mx/4.5.1/../../../../pic32mx/lib\libc.a(strncat.o)
 .comment       0x00000000       0x52 c:/program files (x86)/microchip/mplabc32/v2.02/bin/../lib/gcc/pic32mx/4.5.1/../../../../pic32mx/lib\libc.a(strncmp.o)
 .comment       0x00000000       0x52 c:/program files (x86)/microchip/mplabc32/v2.02/bin/../lib/gcc/pic32mx/4.5.1/../../../../pic32mx/lib\libc.a(strncpy.o)
 .comment       0x00000000       0x52 c:/program files (x86)/microchip/mplabc32/v2.02/bin/../lib/gcc/pic32mx/4.5.1/../../../../pic32mx/lib\libc.a(strstr.o)
 .comment       0x00000000       0x52 c:/program files (x86)/microchip/mplabc32/v2.02/bin/../lib/gcc/pic32mx/4.5.1/../../../../pic32mx/lib\libc.a(strtok.o)
 .comment       0x00000000       0x52 c:/program files (x86)/microchip/mplabc32/v2.02/bin/../lib/gcc/pic32mx/4.5.1/../../../../pic32mx/lib\libc.a(xtoi.o)
 .comment       0x00000000       0x52 c:/program files (x86)/microchip/mplabc32/v2.02/bin/../lib/gcc/pic32mx/4.5.1/../../../../pic32mx/lib\libc.a(atof.o)
 .comment       0x00000000       0x52 c:/program files (x86)/microchip/mplabc32/v2.02/bin/../lib/gcc/pic32mx/4.5.1/../../../../pic32mx/lib\libc.a(sprintf_cdfFnopsuxX.eo)
 .comment       0x00000000       0x52 c:/program files (x86)/microchip/mplabc32/v2.02/bin/../lib/gcc/pic32mx/4.5.1/../../../../pic32mx/lib\libc.a(default-bootstrap-exception-handler.o)
 .comment       0x00000000       0x52 c:/program files (x86)/microchip/mplabc32/v2.02/bin/../lib/gcc/pic32mx/4.5.1/../../../../pic32mx/lib\libc.a(default-on-reset.o)
 .comment       0x00000000       0x52 c:/program files (x86)/microchip/mplabc32/v2.02/bin/../lib/gcc/pic32mx/4.5.1/../../../../pic32mx/lib\libc.a(default-on-bootstrap.o)
 .comment       0x00000000       0x52 c:/program files (x86)/microchip/mplabc32/v2.02/bin/../lib/gcc/pic32mx/4.5.1/../../../../pic32mx/lib\libc.a(strcspn.o)
 .comment       0x00000000       0x52 c:/program files (x86)/microchip/mplabc32/v2.02/bin/../lib/gcc/pic32mx/4.5.1/../../../../pic32mx/lib\libc.a(strspn.o)
 .comment       0x00000000       0x52 c:/program files (x86)/microchip/mplabc32/v2.02/bin/../lib/gcc/pic32mx/4.5.1/../../../../pic32mx/lib\libc.a(strtod.o)
 .comment       0x00000000       0x52 c:/program files (x86)/microchip/mplabc32/v2.02/bin/../lib/gcc/pic32mx/4.5.1/../../../../pic32mx/lib\libc.a(doprnt_cdfFnopsuxX.eo)
 .comment       0x00000000       0x52 c:/program files (x86)/microchip/mplabc32/v2.02/bin/../lib/gcc/pic32mx/4.5.1/../../../../pic32mx/lib\libc.a(_fputc_simple.o)
 .comment       0x00000000       0x52 c:/program files (x86)/microchip/mplabc32/v2.02/bin/../lib/gcc/pic32mx/4.5.1/../../../../pic32mx/lib\libc.a(powers.o)
 .comment       0x00000000       0x52 c:/program files (x86)/microchip/mplabc32/v2.02/bin/../lib/gcc/pic32mx/4.5.1/../../../../pic32mx/lib\libc.a(write.o)
 .comment       0x00000000       0x52 c:/program files (x86)/microchip/mplabc32/v2.02/bin/../lib/gcc/pic32mx/4.5.1/../../../../pic32mx/lib\libc.a(_iob.o)
 .comment       0x00000000       0x52 c:/program files (x86)/microchip/mplabc32/v2.02/bin/../lib/gcc/pic32mx/4.5.1/../../../../pic32mx/lib\libc.a(_flsbuf_simple.o)
 .comment       0x00000000       0x52 c:/program files (x86)/microchip/mplabc32/v2.02/bin/../lib/gcc/pic32mx/4.5.1/../../../../pic32mx/lib\libc.a(_mon_putc.o)
 .comment       0x00000000       0x52 c:/program files (x86)/microchip/mplabc32/v2.02/bin/../lib/gcc/pic32mx/4.5.1/../../../../pic32mx/lib\libc.a(c32_uart.o)
 .comment       0x00000000       0x52 c:/program files (x86)/microchip/mplabc32/v2.02/bin/../lib/gcc/pic32mx/4.5.1/../../../../pic32mx/lib\libm.a(w_sqrtf.o)
 .comment       0x00000000       0x52 c:/program files (x86)/microchip/mplabc32/v2.02/bin/../lib/gcc/pic32mx/4.5.1/../../../../pic32mx/lib\libm.a(s_lib_ver.o)
 .comment       0x00000242       0x9e c:/program files (x86)/microchip/mplabc32/v2.02/bin/../lib/gcc/pic32mx/4.5.1/../../../../pic32mx/lib\libe.a(_floatdisf.o)
                                 0xf0 (size before relaxing)
 .comment       0x000002e0       0x4f c:/program files (x86)/microchip/mplabc32/v2.02/bin/../lib/gcc/pic32mx/4.5.1/../../../../pic32mx/lib\libe.a(_strtod.o)
                                 0xef (size before relaxing)
 .comment       0x0000032f       0x50 c:/program files (x86)/microchip/mplabc32/v2.02/bin/../lib/gcc/pic32mx/4.5.1/../../../../pic32mx/lib\libe.a(_ldexp.o)
                                 0xf0 (size before relaxing)
 .comment       0x0000037f       0x51 c:/program files (x86)/microchip/mplabc32/v2.02/bin/../lib/gcc/pic32mx/4.5.1/../../../../pic32mx/lib\libmchp_peripheral_32MX795F512L.a(soft_reset_lib.o)
                                 0x52 (size before relaxing)
 .comment       0x00000000       0x52 c:/program files (x86)/microchip/mplabc32/v2.02/bin/../lib/gcc/pic32mx/4.5.1/../../../../pic32mx/lib\libmchp_peripheral_32MX795F512L.a(pcache.o)
 .comment       0x00000000       0x52 c:/program files (x86)/microchip/mplabc32/v2.02/bin/../lib/gcc/pic32mx/4.5.1/../../../../pic32mx/lib\libmchp_peripheral_32MX795F512L.a(osc_config_lib.o)
 .comment       0x00000000       0x52 c:/program files (x86)/microchip/mplabc32/v2.02/bin/../lib/gcc/pic32mx/4.5.1/../../../../pic32mx/lib\libmchp_peripheral_32MX795F512L.a(int_disable_interrupts_lib.o)
 .comment       0x00000000       0x52 c:/program files (x86)/microchip/mplabc32/v2.02/bin/../lib/gcc/pic32mx/4.5.1/../../../../pic32mx/lib\libmchp_peripheral_32MX795F512L.a(int_restore_interrupts_lib.o)
 .comment       0x00000000       0x52 c:/program files (x86)/microchip/mplabc32/v2.02/bin/../lib/gcc/pic32mx/4.5.1/../../../../pic32mx/lib\libmchp_peripheral_32MX795F512L.a(int_enable_mv_int_lib.o)
 .comment       0x00000000       0x52 c:/program files (x86)/microchip/mplabc32/v2.02/bin/../lib/gcc/pic32mx/4.5.1/../../../../pic32mx/lib\libmchp_peripheral_32MX795F512L.a(int_tbl_lib.o)
 .comment       0x00000000       0x52 c:/program files (x86)/microchip/mplabc32/v2.02/bin/../lib/gcc/pic32mx/4.5.1/../../../../pic32mx/lib\libmchp_peripheral_32MX795F512L.a(spi_chn_open_lib.o)
 .comment       0x00000000       0x52 c:/program files (x86)/microchip/mplabc32/v2.02/bin/../lib/gcc/pic32mx/4.5.1/../../../../pic32mx/lib\libmchp_peripheral_32MX795F512L.a(spi_io_tbl_libp.o)
 .comment       0x00000000       0x52 c:/program files (x86)/microchip/mplabc32/v2.02/bin/../lib/gcc/pic32mx/4.5.1/../../../../pic32mx/lib\libmchp_peripheral_32MX795F512L.a(spi_map_tbl_libp.o)
 .comment       0x00000000       0x52 c:/program files (x86)/microchip/mplabc32/v2.02/bin/../lib/gcc/pic32mx/4.5.1/../../../../pic32mx/lib\libmchp_peripheral_32MX795F512L.a(nvm_erase_page_lib.o)
 .comment       0x00000000       0x52 c:/program files (x86)/microchip/mplabc32/v2.02/bin/../lib/gcc/pic32mx/4.5.1/../../../../pic32mx/lib\libmchp_peripheral_32MX795F512L.a(nvm_operation_lib.o)
 .comment       0x00000000       0x52 c:/program files (x86)/microchip/mplabc32/v2.02/bin/../lib/gcc/pic32mx/4.5.1/../../../../pic32mx/lib\libmchp_peripheral_32MX795F512L.a(nvm_write_row_lib.o)
 .comment       0x00000000       0x52 c:/program files (x86)/microchip/mplabc32/v2.02/bin/../lib/gcc/pic32mx/4.5.1/../../../../pic32mx/lib\libmchp_peripheral_32MX795F512L.a(port_set_pins_digital_in_lib.o)
 .comment       0x00000000       0x52 c:/program files (x86)/microchip/mplabc32/v2.02/bin/../lib/gcc/pic32mx/4.5.1/../../../../pic32mx/lib\libmchp_peripheral_32MX795F512L.a(port_set_pins_digital_out_lib.o)
 .comment       0x00000000       0x52 c:/program files (x86)/microchip/mplabc32/v2.02/bin/../lib/gcc/pic32mx/4.5.1/../../../../pic32mx/lib\libmchp_peripheral_32MX795F512L.a(_ports_tbl_libp.o)
 .comment       0x00000000       0x52 c:/program files (x86)/microchip/mplabc32/v2.02/bin/../lib/gcc/pic32mx/4.5.1/../../../../pic32mx/lib\libmchp_peripheral_32MX795F512L.a(uart_lib.o)
 .comment       0x00000000       0x52 c:/program files (x86)/microchip/mplabc32/v2.02/bin/../lib/gcc/pic32mx/4.5.1/../../../../pic32mx/lib\libmchp_peripheral_32MX795F512L.a(int_enable_interrupts_lib.o)
 .comment       0x00000000       0x52 c:/program files (x86)/microchip/mplabc32/v2.02/bin/../lib/gcc/pic32mx/4.5.1/../../../../pic32mx/lib\libc.a(errno.o)
 .comment       0x00000000       0x52 c:/program files (x86)/microchip/mplabc32/v2.02/bin/../lib/gcc/pic32mx/4.5.1\libgcc.a(_lshrdi3.o)
 .comment       0x00000000       0x52 c:/program files (x86)/microchip/mplabc32/v2.02/bin/../lib/gcc/pic32mx/4.5.1\libgcc.a(_ashldi3.o)
 .comment       0x00000000       0x52 c:/program files (x86)/microchip/mplabc32/v2.02/bin/../lib/gcc/pic32mx/4.5.1\libgcc.a(_floatundisf.o)
 .comment       0x00000000       0x52 c:/program files (x86)/microchip/mplabc32/v2.02/bin/../lib/gcc/pic32mx/4.5.1\libgcc.a(_udivdi3.o)
 .comment       0x00000000       0x52 c:/program files (x86)/microchip/mplabc32/v2.02/bin/../lib/gcc/pic32mx/4.5.1\libgcc.a(_umoddi3.o)

.debug
 *(.debug)

.line
 *(.line)

.debug_srcinfo
 *(.debug_srcinfo)

.debug_sfnames
 *(.debug_sfnames)

.debug_aranges  0x00000000      0xaf0
 *(.debug_aranges)
 .debug_aranges
                0x00000000       0x20 build/default/production/src/ads7846.o
 .debug_aranges
                0x00000020       0x20 build/default/production/src/anatype.o
 .debug_aranges
                0x00000040       0x20 build/default/production/src/can.o
 .debug_aranges
                0x00000060       0x20 build/default/production/src/clock.o
 .debug_aranges
                0x00000080       0x20 build/default/production/src/comsbusmaitre.o
 .debug_aranges
                0x000000a0       0x20 build/default/production/src/config.o
 .debug_aranges
                0x000000c0       0x20 build/default/production/src/echantillonnage.o
 .debug_aranges
                0x000000e0       0x20 build/default/production/src/exceptions.o
 .debug_aranges
                0x00000100       0x20 build/default/production/src/graphics.o
 .debug_aranges
                0x00000120       0x20 build/default/production/src/gsm+.o
 .debug_aranges
                0x00000140       0x20 build/default/production/src/gsm.o
 .debug_aranges
                0x00000160       0x20 build/default/production/src/kalman.o
 .debug_aranges
                0x00000180       0x20 build/default/production/src/main.o
 .debug_aranges
                0x000001a0       0x20 build/default/production/src/mtrxsbus.o
 .debug_aranges
                0x000001c0       0x20 build/default/production/src/pwm.o
 .debug_aranges
                0x000001e0       0x20 build/default/production/src/relais.o
 .debug_aranges
                0x00000200       0x20 build/default/production/src/rtc.o
 .debug_aranges
                0x00000220       0x20 build/default/production/src/s1d13700.o
 .debug_aranges
                0x00000240       0x20 build/default/production/src/secteur.o
 .debug_aranges
                0x00000260       0x20 build/default/production/src/slvxsbus.o
 .debug_aranges
                0x00000280       0x20 build/default/production/src/timers.o
 .debug_aranges
                0x000002a0       0x20 build/default/production/src/tor.o
 .debug_aranges
                0x000002c0       0x20 build/default/production/src/uart.o
 .debug_aranges
                0x000002e0       0x20 build/default/production/src/variables.o
 .debug_aranges
                0x00000300       0x20 build/default/production/src/historique.o
 .debug_aranges
                0x00000320       0x20 build/default/production/src/terminal.o
 .debug_aranges
                0x00000340       0x20 build/default/production/src/eauglycolee.o
 .debug_aranges
                0x00000360       0x20 c:/program files (x86)/microchip/mplabc32/v2.02/bin/../lib/gcc/pic32mx/4.5.1\libgcc.a(floatunsisf.o)
 .debug_aranges
                0x00000380       0x20 c:/program files (x86)/microchip/mplabc32/v2.02/bin/../lib/gcc/pic32mx/4.5.1/../../../../pic32mx/lib\libc.a(atoi.o)
 .debug_aranges
                0x000003a0       0x20 c:/program files (x86)/microchip/mplabc32/v2.02/bin/../lib/gcc/pic32mx/4.5.1/../../../../pic32mx/lib\libc.a(atol.o)
 .debug_aranges
                0x000003c0       0x38 c:/program files (x86)/microchip/mplabc32/v2.02/bin/../lib/gcc/pic32mx/4.5.1/../../../../pic32mx/lib\libc.a(ctime.o)
 .debug_aranges
                0x000003f8       0xa0 c:/program files (x86)/microchip/mplabc32/v2.02/bin/../lib/gcc/pic32mx/4.5.1/../../../../pic32mx/lib\libc.a(ctypef.o)
 .debug_aranges
                0x00000498       0x28 c:/program files (x86)/microchip/mplabc32/v2.02/bin/../lib/gcc/pic32mx/4.5.1/../../../../pic32mx/lib\libc.a(mktime.o)
 .debug_aranges
                0x000004c0       0x20 c:/program files (x86)/microchip/mplabc32/v2.02/bin/../lib/gcc/pic32mx/4.5.1/../../../../pic32mx/lib\libc.a(strcat.o)
 .debug_aranges
                0x000004e0       0x20 c:/program files (x86)/microchip/mplabc32/v2.02/bin/../lib/gcc/pic32mx/4.5.1/../../../../pic32mx/lib\libc.a(strchr.o)
 .debug_aranges
                0x00000500       0x20 c:/program files (x86)/microchip/mplabc32/v2.02/bin/../lib/gcc/pic32mx/4.5.1/../../../../pic32mx/lib\libc.a(strncat.o)
 .debug_aranges
                0x00000520       0x20 c:/program files (x86)/microchip/mplabc32/v2.02/bin/../lib/gcc/pic32mx/4.5.1/../../../../pic32mx/lib\libc.a(strncmp.o)
 .debug_aranges
                0x00000540       0x20 c:/program files (x86)/microchip/mplabc32/v2.02/bin/../lib/gcc/pic32mx/4.5.1/../../../../pic32mx/lib\libc.a(strncpy.o)
 .debug_aranges
                0x00000560       0x20 c:/program files (x86)/microchip/mplabc32/v2.02/bin/../lib/gcc/pic32mx/4.5.1/../../../../pic32mx/lib\libc.a(strstr.o)
 .debug_aranges
                0x00000580       0x20 c:/program files (x86)/microchip/mplabc32/v2.02/bin/../lib/gcc/pic32mx/4.5.1/../../../../pic32mx/lib\libc.a(strtok.o)
 .debug_aranges
                0x000005a0       0x20 c:/program files (x86)/microchip/mplabc32/v2.02/bin/../lib/gcc/pic32mx/4.5.1/../../../../pic32mx/lib\libc.a(xtoi.o)
 .debug_aranges
                0x000005c0       0x20 c:/program files (x86)/microchip/mplabc32/v2.02/bin/../lib/gcc/pic32mx/4.5.1/../../../../pic32mx/lib\libc.a(atof.o)
 .debug_aranges
                0x000005e0       0x20 c:/program files (x86)/microchip/mplabc32/v2.02/bin/../lib/gcc/pic32mx/4.5.1/../../../../pic32mx/lib\libc.a(sprintf_cdfFnopsuxX.eo)
 .debug_aranges
                0x00000600       0x20 c:/program files (x86)/microchip/mplabc32/v2.02/bin/../lib/gcc/pic32mx/4.5.1/../../../../pic32mx/lib\libc.a(default-bootstrap-exception-handler.o)
 .debug_aranges
                0x00000620       0x20 c:/program files (x86)/microchip/mplabc32/v2.02/bin/../lib/gcc/pic32mx/4.5.1/../../../../pic32mx/lib\libc.a(default-on-reset.o)
 .debug_aranges
                0x00000640       0x20 c:/program files (x86)/microchip/mplabc32/v2.02/bin/../lib/gcc/pic32mx/4.5.1/../../../../pic32mx/lib\libc.a(default-on-bootstrap.o)
 .debug_aranges
                0x00000660       0x20 c:/program files (x86)/microchip/mplabc32/v2.02/bin/../lib/gcc/pic32mx/4.5.1/../../../../pic32mx/lib\libc.a(strcspn.o)
 .debug_aranges
                0x00000680       0x20 c:/program files (x86)/microchip/mplabc32/v2.02/bin/../lib/gcc/pic32mx/4.5.1/../../../../pic32mx/lib\libc.a(strspn.o)
 .debug_aranges
                0x000006a0       0x28 c:/program files (x86)/microchip/mplabc32/v2.02/bin/../lib/gcc/pic32mx/4.5.1/../../../../pic32mx/lib\libc.a(strtod.o)
 .debug_aranges
                0x000006c8       0x28 c:/program files (x86)/microchip/mplabc32/v2.02/bin/../lib/gcc/pic32mx/4.5.1/../../../../pic32mx/lib\libc.a(doprnt_cdfFnopsuxX.eo)
 .debug_aranges
                0x000006f0       0x20 c:/program files (x86)/microchip/mplabc32/v2.02/bin/../lib/gcc/pic32mx/4.5.1/../../../../pic32mx/lib\libc.a(_fputc_simple.o)
 .debug_aranges
                0x00000710       0x20 c:/program files (x86)/microchip/mplabc32/v2.02/bin/../lib/gcc/pic32mx/4.5.1/../../../../pic32mx/lib\libc.a(write.o)
 .debug_aranges
                0x00000730       0x20 c:/program files (x86)/microchip/mplabc32/v2.02/bin/../lib/gcc/pic32mx/4.5.1/../../../../pic32mx/lib\libc.a(_flsbuf_simple.o)
 .debug_aranges
                0x00000750       0x20 c:/program files (x86)/microchip/mplabc32/v2.02/bin/../lib/gcc/pic32mx/4.5.1/../../../../pic32mx/lib\libc.a(_mon_putc.o)
 .debug_aranges
                0x00000770       0x20 c:/program files (x86)/microchip/mplabc32/v2.02/bin/../lib/gcc/pic32mx/4.5.1/../../../../pic32mx/lib\libm.a(w_sqrtf.o)
 .debug_aranges
                0x00000790       0x20 c:/program files (x86)/microchip/mplabc32/v2.02/bin/../lib/gcc/pic32mx/4.5.1/../../../../pic32mx/lib\libe.a(_floatdisf.o)
 .debug_aranges
                0x000007b0       0x20 c:/program files (x86)/microchip/mplabc32/v2.02/bin/../lib/gcc/pic32mx/4.5.1/../../../../pic32mx/lib\libe.a(_strtod.o)
 .debug_aranges
                0x000007d0       0x20 c:/program files (x86)/microchip/mplabc32/v2.02/bin/../lib/gcc/pic32mx/4.5.1/../../../../pic32mx/lib\libe.a(_ldexp.o)
 .debug_aranges
                0x000007f0       0x20 c:/program files (x86)/microchip/mplabc32/v2.02/bin/../lib/gcc/pic32mx/4.5.1/../../../../pic32mx/lib\libmchp_peripheral_32MX795F512L.a(soft_reset_lib.o)
 .debug_aranges
                0x00000810       0x28 c:/program files (x86)/microchip/mplabc32/v2.02/bin/../lib/gcc/pic32mx/4.5.1/../../../../pic32mx/lib\libmchp_peripheral_32MX795F512L.a(pcache.o)
 .debug_aranges
                0x00000838       0x20 c:/program files (x86)/microchip/mplabc32/v2.02/bin/../lib/gcc/pic32mx/4.5.1/../../../../pic32mx/lib\libmchp_peripheral_32MX795F512L.a(osc_config_lib.o)
 .debug_aranges
                0x00000858       0x20 c:/program files (x86)/microchip/mplabc32/v2.02/bin/../lib/gcc/pic32mx/4.5.1/../../../../pic32mx/lib\libmchp_peripheral_32MX795F512L.a(int_disable_interrupts_lib.o)
 .debug_aranges
                0x00000878       0x20 c:/program files (x86)/microchip/mplabc32/v2.02/bin/../lib/gcc/pic32mx/4.5.1/../../../../pic32mx/lib\libmchp_peripheral_32MX795F512L.a(int_restore_interrupts_lib.o)
 .debug_aranges
                0x00000898       0x20 c:/program files (x86)/microchip/mplabc32/v2.02/bin/../lib/gcc/pic32mx/4.5.1/../../../../pic32mx/lib\libmchp_peripheral_32MX795F512L.a(int_enable_mv_int_lib.o)
 .debug_aranges
                0x000008b8       0x60 c:/program files (x86)/microchip/mplabc32/v2.02/bin/../lib/gcc/pic32mx/4.5.1/../../../../pic32mx/lib\libmchp_peripheral_32MX795F512L.a(int_tbl_lib.o)
 .debug_aranges
                0x00000918       0x20 c:/program files (x86)/microchip/mplabc32/v2.02/bin/../lib/gcc/pic32mx/4.5.1/../../../../pic32mx/lib\libmchp_peripheral_32MX795F512L.a(spi_chn_open_lib.o)
 .debug_aranges
                0x00000938       0x20 c:/program files (x86)/microchip/mplabc32/v2.02/bin/../lib/gcc/pic32mx/4.5.1/../../../../pic32mx/lib\libmchp_peripheral_32MX795F512L.a(nvm_erase_page_lib.o)
 .debug_aranges
                0x00000958       0x20 c:/program files (x86)/microchip/mplabc32/v2.02/bin/../lib/gcc/pic32mx/4.5.1/../../../../pic32mx/lib\libmchp_peripheral_32MX795F512L.a(nvm_operation_lib.o)
 .debug_aranges
                0x00000978       0x20 c:/program files (x86)/microchip/mplabc32/v2.02/bin/../lib/gcc/pic32mx/4.5.1/../../../../pic32mx/lib\libmchp_peripheral_32MX795F512L.a(nvm_write_row_lib.o)
 .debug_aranges
                0x00000998       0x20 c:/program files (x86)/microchip/mplabc32/v2.02/bin/../lib/gcc/pic32mx/4.5.1/../../../../pic32mx/lib\libmchp_peripheral_32MX795F512L.a(port_set_pins_digital_in_lib.o)
 .debug_aranges
                0x000009b8       0x20 c:/program files (x86)/microchip/mplabc32/v2.02/bin/../lib/gcc/pic32mx/4.5.1/../../../../pic32mx/lib\libmchp_peripheral_32MX795F512L.a(port_set_pins_digital_out_lib.o)
 .debug_aranges
                0x000009d8       0x58 c:/program files (x86)/microchip/mplabc32/v2.02/bin/../lib/gcc/pic32mx/4.5.1/../../../../pic32mx/lib\libmchp_peripheral_32MX795F512L.a(uart_lib.o)
 .debug_aranges
                0x00000a30       0x20 c:/program files (x86)/microchip/mplabc32/v2.02/bin/../lib/gcc/pic32mx/4.5.1/../../../../pic32mx/lib\libmchp_peripheral_32MX795F512L.a(int_enable_interrupts_lib.o)
 .debug_aranges
                0x00000a50       0x20 c:/program files (x86)/microchip/mplabc32/v2.02/bin/../lib/gcc/pic32mx/4.5.1\libgcc.a(_lshrdi3.o)
 .debug_aranges
                0x00000a70       0x20 c:/program files (x86)/microchip/mplabc32/v2.02/bin/../lib/gcc/pic32mx/4.5.1\libgcc.a(_ashldi3.o)
 .debug_aranges
                0x00000a90       0x20 c:/program files (x86)/microchip/mplabc32/v2.02/bin/../lib/gcc/pic32mx/4.5.1\libgcc.a(_floatundisf.o)
 .debug_aranges
                0x00000ab0       0x20 c:/program files (x86)/microchip/mplabc32/v2.02/bin/../lib/gcc/pic32mx/4.5.1\libgcc.a(_udivdi3.o)
 .debug_aranges
                0x00000ad0       0x20 c:/program files (x86)/microchip/mplabc32/v2.02/bin/../lib/gcc/pic32mx/4.5.1\libgcc.a(_umoddi3.o)

.debug_pubnames
                0x00000000     0x3da9
 *(.debug_pubnames)
 .debug_pubnames
                0x00000000      0x190 build/default/production/src/ads7846.o
 .debug_pubnames
                0x00000190       0x64 build/default/production/src/anatype.o
 .debug_pubnames
                0x000001f4       0xba build/default/production/src/can.o
 .debug_pubnames
                0x000002ae      0x22f build/default/production/src/clock.o
 .debug_pubnames
                0x000004dd      0x1ae build/default/production/src/comsbusmaitre.o
 .debug_pubnames
                0x0000068b       0x97 build/default/production/src/config.o
 .debug_pubnames
                0x00000722       0x35 build/default/production/src/echantillonnage.o
 .debug_pubnames
                0x00000757       0x60 build/default/production/src/exceptions.o
 .debug_pubnames
                0x000007b7       0x61 build/default/production/src/font.o
 .debug_pubnames
                0x00000818      0x253 build/default/production/src/graphics.o
 .debug_pubnames
                0x00000a6b      0x16f build/default/production/src/gsm+.o
 .debug_pubnames
                0x00000bda      0xc94 build/default/production/src/gsm.o
 .debug_pubnames
                0x0000186e      0xb0f build/default/production/src/image.o
 .debug_pubnames
                0x0000237d       0x38 build/default/production/src/kalman.o
 .debug_pubnames
                0x000023b5      0x100 build/default/production/src/main.o
 .debug_pubnames
                0x000024b5      0x164 build/default/production/src/mtrxsbus.o
 .debug_pubnames
                0x00002619       0x3d build/default/production/src/pwm.o
 .debug_pubnames
                0x00002656       0x69 build/default/production/src/relais.o
 .debug_pubnames
                0x000026bf      0x14b build/default/production/src/rtc.o
 .debug_pubnames
                0x0000280a      0x13d build/default/production/src/s1d13700.o
 .debug_pubnames
                0x00002947       0xfa build/default/production/src/secteur.o
 .debug_pubnames
                0x00002a41      0x2f4 build/default/production/src/slvxsbus.o
 .debug_pubnames
                0x00002d35       0xbe build/default/production/src/timers.o
 .debug_pubnames
                0x00002df3      0x155 build/default/production/src/tor.o
 .debug_pubnames
                0x00002f48      0x2b7 build/default/production/src/uart.o
 .debug_pubnames
                0x000031ff      0x12f build/default/production/src/variables.o
 .debug_pubnames
                0x0000332e       0xad build/default/production/src/historique.o
 .debug_pubnames
                0x000033db       0x8f build/default/production/src/terminal.o
 .debug_pubnames
                0x0000346a       0x4d build/default/production/src/eauglycolee.o
 .debug_pubnames
                0x000034b7       0x24 c:/program files (x86)/microchip/mplabc32/v2.02/bin/../lib/gcc/pic32mx/4.5.1\libgcc.a(floatunsisf.o)
 .debug_pubnames
                0x000034db       0x1b c:/program files (x86)/microchip/mplabc32/v2.02/bin/../lib/gcc/pic32mx/4.5.1/../../../../pic32mx/lib\libc.a(atoi.o)
 .debug_pubnames
                0x000034f6       0x1b c:/program files (x86)/microchip/mplabc32/v2.02/bin/../lib/gcc/pic32mx/4.5.1/../../../../pic32mx/lib\libc.a(atol.o)
 .debug_pubnames
                0x00003511       0x41 c:/program files (x86)/microchip/mplabc32/v2.02/bin/../lib/gcc/pic32mx/4.5.1/../../../../pic32mx/lib\libc.a(ctime.o)
 .debug_pubnames
                0x00003552       0xe1 c:/program files (x86)/microchip/mplabc32/v2.02/bin/../lib/gcc/pic32mx/4.5.1/../../../../pic32mx/lib\libc.a(ctypef.o)
 .debug_pubnames
                0x00003633       0x1d c:/program files (x86)/microchip/mplabc32/v2.02/bin/../lib/gcc/pic32mx/4.5.1/../../../../pic32mx/lib\libc.a(mktime.o)
 .debug_pubnames
                0x00003650       0x1d c:/program files (x86)/microchip/mplabc32/v2.02/bin/../lib/gcc/pic32mx/4.5.1/../../../../pic32mx/lib\libc.a(strcat.o)
 .debug_pubnames
                0x0000366d       0x1d c:/program files (x86)/microchip/mplabc32/v2.02/bin/../lib/gcc/pic32mx/4.5.1/../../../../pic32mx/lib\libc.a(strchr.o)
 .debug_pubnames
                0x0000368a       0x1e c:/program files (x86)/microchip/mplabc32/v2.02/bin/../lib/gcc/pic32mx/4.5.1/../../../../pic32mx/lib\libc.a(strncat.o)
 .debug_pubnames
                0x000036a8       0x1e c:/program files (x86)/microchip/mplabc32/v2.02/bin/../lib/gcc/pic32mx/4.5.1/../../../../pic32mx/lib\libc.a(strncmp.o)
 .debug_pubnames
                0x000036c6       0x1e c:/program files (x86)/microchip/mplabc32/v2.02/bin/../lib/gcc/pic32mx/4.5.1/../../../../pic32mx/lib\libc.a(strncpy.o)
 .debug_pubnames
                0x000036e4       0x1d c:/program files (x86)/microchip/mplabc32/v2.02/bin/../lib/gcc/pic32mx/4.5.1/../../../../pic32mx/lib\libc.a(strstr.o)
 .debug_pubnames
                0x00003701       0x1d c:/program files (x86)/microchip/mplabc32/v2.02/bin/../lib/gcc/pic32mx/4.5.1/../../../../pic32mx/lib\libc.a(strtok.o)
 .debug_pubnames
                0x0000371e       0x1b c:/program files (x86)/microchip/mplabc32/v2.02/bin/../lib/gcc/pic32mx/4.5.1/../../../../pic32mx/lib\libc.a(xtoi.o)
 .debug_pubnames
                0x00003739       0x1b c:/program files (x86)/microchip/mplabc32/v2.02/bin/../lib/gcc/pic32mx/4.5.1/../../../../pic32mx/lib\libc.a(atof.o)
 .debug_pubnames
                0x00003754       0x2b c:/program files (x86)/microchip/mplabc32/v2.02/bin/../lib/gcc/pic32mx/4.5.1/../../../../pic32mx/lib\libc.a(sprintf_cdfFnopsuxX.eo)
 .debug_pubnames
                0x0000377f       0x33 c:/program files (x86)/microchip/mplabc32/v2.02/bin/../lib/gcc/pic32mx/4.5.1/../../../../pic32mx/lib\libc.a(default-bootstrap-exception-handler.o)
 .debug_pubnames
                0x000037b2       0x20 c:/program files (x86)/microchip/mplabc32/v2.02/bin/../lib/gcc/pic32mx/4.5.1/../../../../pic32mx/lib\libc.a(default-on-reset.o)
 .debug_pubnames
                0x000037d2       0x24 c:/program files (x86)/microchip/mplabc32/v2.02/bin/../lib/gcc/pic32mx/4.5.1/../../../../pic32mx/lib\libc.a(default-on-bootstrap.o)
 .debug_pubnames
                0x000037f6       0x1e c:/program files (x86)/microchip/mplabc32/v2.02/bin/../lib/gcc/pic32mx/4.5.1/../../../../pic32mx/lib\libc.a(strcspn.o)
 .debug_pubnames
                0x00003814       0x1d c:/program files (x86)/microchip/mplabc32/v2.02/bin/../lib/gcc/pic32mx/4.5.1/../../../../pic32mx/lib\libc.a(strspn.o)
 .debug_pubnames
                0x00003831       0x2a c:/program files (x86)/microchip/mplabc32/v2.02/bin/../lib/gcc/pic32mx/4.5.1/../../../../pic32mx/lib\libc.a(strtod.o)
 .debug_pubnames
                0x0000385b       0x2c c:/program files (x86)/microchip/mplabc32/v2.02/bin/../lib/gcc/pic32mx/4.5.1/../../../../pic32mx/lib\libc.a(doprnt_cdfFnopsuxX.eo)
 .debug_pubnames
                0x00003887       0x1c c:/program files (x86)/microchip/mplabc32/v2.02/bin/../lib/gcc/pic32mx/4.5.1/../../../../pic32mx/lib\libc.a(_fputc_simple.o)
 .debug_pubnames
                0x000038a3       0x1c c:/program files (x86)/microchip/mplabc32/v2.02/bin/../lib/gcc/pic32mx/4.5.1/../../../../pic32mx/lib\libc.a(write.o)
 .debug_pubnames
                0x000038bf       0x1e c:/program files (x86)/microchip/mplabc32/v2.02/bin/../lib/gcc/pic32mx/4.5.1/../../../../pic32mx/lib\libc.a(_flsbuf_simple.o)
 .debug_pubnames
                0x000038dd       0x20 c:/program files (x86)/microchip/mplabc32/v2.02/bin/../lib/gcc/pic32mx/4.5.1/../../../../pic32mx/lib\libc.a(_mon_putc.o)
 .debug_pubnames
                0x000038fd       0x1c c:/program files (x86)/microchip/mplabc32/v2.02/bin/../lib/gcc/pic32mx/4.5.1/../../../../pic32mx/lib\libm.a(w_sqrtf.o)
 .debug_pubnames
                0x00003919       0x22 c:/program files (x86)/microchip/mplabc32/v2.02/bin/../lib/gcc/pic32mx/4.5.1/../../../../pic32mx/lib\libe.a(_floatdisf.o)
 .debug_pubnames
                0x0000393b       0x1f c:/program files (x86)/microchip/mplabc32/v2.02/bin/../lib/gcc/pic32mx/4.5.1/../../../../pic32mx/lib\libe.a(_strtod.o)
 .debug_pubnames
                0x0000395a       0x1e c:/program files (x86)/microchip/mplabc32/v2.02/bin/../lib/gcc/pic32mx/4.5.1/../../../../pic32mx/lib\libe.a(_ldexp.o)
 .debug_pubnames
                0x00003978       0x20 c:/program files (x86)/microchip/mplabc32/v2.02/bin/../lib/gcc/pic32mx/4.5.1/../../../../pic32mx/lib\libmchp_peripheral_32MX795F512L.a(soft_reset_lib.o)
 .debug_pubnames
                0x00003998       0x3b c:/program files (x86)/microchip/mplabc32/v2.02/bin/../lib/gcc/pic32mx/4.5.1/../../../../pic32mx/lib\libmchp_peripheral_32MX795F512L.a(pcache.o)
 .debug_pubnames
                0x000039d3       0x20 c:/program files (x86)/microchip/mplabc32/v2.02/bin/../lib/gcc/pic32mx/4.5.1/../../../../pic32mx/lib\libmchp_peripheral_32MX795F512L.a(osc_config_lib.o)
 .debug_pubnames
                0x000039f3       0x2b c:/program files (x86)/microchip/mplabc32/v2.02/bin/../lib/gcc/pic32mx/4.5.1/../../../../pic32mx/lib\libmchp_peripheral_32MX795F512L.a(int_disable_interrupts_lib.o)
 .debug_pubnames
                0x00003a1e       0x2b c:/program files (x86)/microchip/mplabc32/v2.02/bin/../lib/gcc/pic32mx/4.5.1/../../../../pic32mx/lib\libmchp_peripheral_32MX795F512L.a(int_restore_interrupts_lib.o)
 .debug_pubnames
                0x00003a49       0x36 c:/program files (x86)/microchip/mplabc32/v2.02/bin/../lib/gcc/pic32mx/4.5.1/../../../../pic32mx/lib\libmchp_peripheral_32MX795F512L.a(int_enable_mv_int_lib.o)
 .debug_pubnames
                0x00003a7f       0xca c:/program files (x86)/microchip/mplabc32/v2.02/bin/../lib/gcc/pic32mx/4.5.1/../../../../pic32mx/lib\libmchp_peripheral_32MX795F512L.a(int_tbl_lib.o)
 .debug_pubnames
                0x00003b49       0x21 c:/program files (x86)/microchip/mplabc32/v2.02/bin/../lib/gcc/pic32mx/4.5.1/../../../../pic32mx/lib\libmchp_peripheral_32MX795F512L.a(spi_chn_open_lib.o)
 .debug_pubnames
                0x00003b6a       0x23 c:/program files (x86)/microchip/mplabc32/v2.02/bin/../lib/gcc/pic32mx/4.5.1/../../../../pic32mx/lib\libmchp_peripheral_32MX795F512L.a(nvm_erase_page_lib.o)
 .debug_pubnames
                0x00003b8d       0x24 c:/program files (x86)/microchip/mplabc32/v2.02/bin/../lib/gcc/pic32mx/4.5.1/../../../../pic32mx/lib\libmchp_peripheral_32MX795F512L.a(nvm_operation_lib.o)
 .debug_pubnames
                0x00003bb1       0x22 c:/program files (x86)/microchip/mplabc32/v2.02/bin/../lib/gcc/pic32mx/4.5.1/../../../../pic32mx/lib\libmchp_peripheral_32MX795F512L.a(nvm_write_row_lib.o)
 .debug_pubnames
                0x00003bd3       0x2b c:/program files (x86)/microchip/mplabc32/v2.02/bin/../lib/gcc/pic32mx/4.5.1/../../../../pic32mx/lib\libmchp_peripheral_32MX795F512L.a(port_set_pins_digital_in_lib.o)
 .debug_pubnames
                0x00003bfe       0x2c c:/program files (x86)/microchip/mplabc32/v2.02/bin/../lib/gcc/pic32mx/4.5.1/../../../../pic32mx/lib\libmchp_peripheral_32MX795F512L.a(port_set_pins_digital_out_lib.o)
 .debug_pubnames
                0x00003c2a       0xb1 c:/program files (x86)/microchip/mplabc32/v2.02/bin/../lib/gcc/pic32mx/4.5.1/../../../../pic32mx/lib\libmchp_peripheral_32MX795F512L.a(uart_lib.o)
 .debug_pubnames
                0x00003cdb       0x2a c:/program files (x86)/microchip/mplabc32/v2.02/bin/../lib/gcc/pic32mx/4.5.1/../../../../pic32mx/lib\libmchp_peripheral_32MX795F512L.a(int_enable_interrupts_lib.o)
 .debug_pubnames
                0x00003d05       0x20 c:/program files (x86)/microchip/mplabc32/v2.02/bin/../lib/gcc/pic32mx/4.5.1\libgcc.a(_lshrdi3.o)
 .debug_pubnames
                0x00003d25       0x20 c:/program files (x86)/microchip/mplabc32/v2.02/bin/../lib/gcc/pic32mx/4.5.1\libgcc.a(_ashldi3.o)
 .debug_pubnames
                0x00003d45       0x24 c:/program files (x86)/microchip/mplabc32/v2.02/bin/../lib/gcc/pic32mx/4.5.1\libgcc.a(_floatundisf.o)
 .debug_pubnames
                0x00003d69       0x20 c:/program files (x86)/microchip/mplabc32/v2.02/bin/../lib/gcc/pic32mx/4.5.1\libgcc.a(_udivdi3.o)
 .debug_pubnames
                0x00003d89       0x20 c:/program files (x86)/microchip/mplabc32/v2.02/bin/../lib/gcc/pic32mx/4.5.1\libgcc.a(_umoddi3.o)

.debug_info     0x00000000    0x39182
 *(.debug_info .gnu.linkonce.wi.*)
 .debug_info    0x00000000     0x24c9 build/default/production/src/ads7846.o
 .debug_info    0x000024c9      0x41d build/default/production/src/anatype.o
 .debug_info    0x000028e6     0x2385 build/default/production/src/can.o
 .debug_info    0x00004c6b     0x19e9 build/default/production/src/clock.o
 .debug_info    0x00006654     0x1884 build/default/production/src/comsbusmaitre.o
 .debug_info    0x00007ed8     0x142b build/default/production/src/config.o
 .debug_info    0x00009303      0x341 build/default/production/src/echantillonnage.o
 .debug_info    0x00009644     0x12db build/default/production/src/exceptions.o
 .debug_info    0x0000a91f      0x292 build/default/production/src/font.o
 .debug_info    0x0000abb1     0x236f build/default/production/src/graphics.o
 .debug_info    0x0000cf20     0x19f8 build/default/production/src/gsm+.o
 .debug_info    0x0000e918     0x4a2a build/default/production/src/gsm.o
 .debug_info    0x00013342     0x34d2 build/default/production/src/image.o
 .debug_info    0x00016814      0x1a0 build/default/production/src/kalman.o
 .debug_info    0x000169b4     0x2778 build/default/production/src/main.o
 .debug_info    0x0001912c     0x1de8 build/default/production/src/mtrxsbus.o
 .debug_info    0x0001af14     0x15ef build/default/production/src/pwm.o
 .debug_info    0x0001c503     0x1236 build/default/production/src/relais.o
 .debug_info    0x0001d739     0x2c91 build/default/production/src/rtc.o
 .debug_info    0x000203ca     0x1e50 build/default/production/src/s1d13700.o
 .debug_info    0x0002221a     0x184c build/default/production/src/secteur.o
 .debug_info    0x00023a66     0x2291 build/default/production/src/slvxsbus.o
 .debug_info    0x00025cf7     0x1afd build/default/production/src/timers.o
 .debug_info    0x000277f4     0x3f0b build/default/production/src/tor.o
 .debug_info    0x0002b6ff     0x3e25 build/default/production/src/uart.o
 .debug_info    0x0002f524     0x1a16 build/default/production/src/variables.o
 .debug_info    0x00030f3a     0x13fe build/default/production/src/historique.o
 .debug_info    0x00032338     0x18c5 build/default/production/src/terminal.o
 .debug_info    0x00033bfd     0x1225 build/default/production/src/eauglycolee.o
 .debug_info    0x00034e22      0x188 c:/program files (x86)/microchip/mplabc32/v2.02/bin/../lib/gcc/pic32mx/4.5.1\libgcc.a(floatunsisf.o)
 .debug_info    0x00034faa       0xcd c:/program files (x86)/microchip/mplabc32/v2.02/bin/../lib/gcc/pic32mx/4.5.1/../../../../pic32mx/lib\libc.a(atoi.o)
 .debug_info    0x00035077       0xcd c:/program files (x86)/microchip/mplabc32/v2.02/bin/../lib/gcc/pic32mx/4.5.1/../../../../pic32mx/lib\libc.a(atol.o)
 .debug_info    0x00035144      0x126 c:/program files (x86)/microchip/mplabc32/v2.02/bin/../lib/gcc/pic32mx/4.5.1/../../../../pic32mx/lib\libc.a(ctime.o)
 .debug_info    0x0003526a        0x0 c:/program files (x86)/microchip/mplabc32/v2.02/bin/../lib/gcc/pic32mx/4.5.1/../../../../pic32mx/lib\libc.a(ctype.o)
 .debug_info    0x0003526a      0x235 c:/program files (x86)/microchip/mplabc32/v2.02/bin/../lib/gcc/pic32mx/4.5.1/../../../../pic32mx/lib\libc.a(ctypef.o)
 .debug_info    0x0003549f      0x11c c:/program files (x86)/microchip/mplabc32/v2.02/bin/../lib/gcc/pic32mx/4.5.1/../../../../pic32mx/lib\libc.a(mktime.o)
 .debug_info    0x000355bb       0xd1 c:/program files (x86)/microchip/mplabc32/v2.02/bin/../lib/gcc/pic32mx/4.5.1/../../../../pic32mx/lib\libc.a(strcat.o)
 .debug_info    0x0003568c       0xd1 c:/program files (x86)/microchip/mplabc32/v2.02/bin/../lib/gcc/pic32mx/4.5.1/../../../../pic32mx/lib\libc.a(strchr.o)
 .debug_info    0x0003575d       0xd3 c:/program files (x86)/microchip/mplabc32/v2.02/bin/../lib/gcc/pic32mx/4.5.1/../../../../pic32mx/lib\libc.a(strncat.o)
 .debug_info    0x00035830       0xd3 c:/program files (x86)/microchip/mplabc32/v2.02/bin/../lib/gcc/pic32mx/4.5.1/../../../../pic32mx/lib\libc.a(strncmp.o)
 .debug_info    0x00035903       0xd3 c:/program files (x86)/microchip/mplabc32/v2.02/bin/../lib/gcc/pic32mx/4.5.1/../../../../pic32mx/lib\libc.a(strncpy.o)
 .debug_info    0x000359d6       0xd1 c:/program files (x86)/microchip/mplabc32/v2.02/bin/../lib/gcc/pic32mx/4.5.1/../../../../pic32mx/lib\libc.a(strstr.o)
 .debug_info    0x00035aa7       0xd1 c:/program files (x86)/microchip/mplabc32/v2.02/bin/../lib/gcc/pic32mx/4.5.1/../../../../pic32mx/lib\libc.a(strtok.o)
 .debug_info    0x00035b78       0xcd c:/program files (x86)/microchip/mplabc32/v2.02/bin/../lib/gcc/pic32mx/4.5.1/../../../../pic32mx/lib\libc.a(xtoi.o)
 .debug_info    0x00035c45       0xcd c:/program files (x86)/microchip/mplabc32/v2.02/bin/../lib/gcc/pic32mx/4.5.1/../../../../pic32mx/lib\libc.a(atof.o)
 .debug_info    0x00035d12       0xe7 c:/program files (x86)/microchip/mplabc32/v2.02/bin/../lib/gcc/pic32mx/4.5.1/../../../../pic32mx/lib\libc.a(sprintf_cdfFnopsuxX.eo)
 .debug_info    0x00035df9      0x106 c:/program files (x86)/microchip/mplabc32/v2.02/bin/../lib/gcc/pic32mx/4.5.1/../../../../pic32mx/lib\libc.a(default-bootstrap-exception-handler.o)
 .debug_info    0x00035eff       0xe0 c:/program files (x86)/microchip/mplabc32/v2.02/bin/../lib/gcc/pic32mx/4.5.1/../../../../pic32mx/lib\libc.a(default-on-reset.o)
 .debug_info    0x00035fdf       0xe8 c:/program files (x86)/microchip/mplabc32/v2.02/bin/../lib/gcc/pic32mx/4.5.1/../../../../pic32mx/lib\libc.a(default-on-bootstrap.o)
 .debug_info    0x000360c7       0xd3 c:/program files (x86)/microchip/mplabc32/v2.02/bin/../lib/gcc/pic32mx/4.5.1/../../../../pic32mx/lib\libc.a(strcspn.o)
 .debug_info    0x0003619a       0xd1 c:/program files (x86)/microchip/mplabc32/v2.02/bin/../lib/gcc/pic32mx/4.5.1/../../../../pic32mx/lib\libc.a(strspn.o)
 .debug_info    0x0003626b      0x100 c:/program files (x86)/microchip/mplabc32/v2.02/bin/../lib/gcc/pic32mx/4.5.1/../../../../pic32mx/lib\libc.a(strtod.o)
 .debug_info    0x0003636b      0x108 c:/program files (x86)/microchip/mplabc32/v2.02/bin/../lib/gcc/pic32mx/4.5.1/../../../../pic32mx/lib\libc.a(doprnt_cdfFnopsuxX.eo)
 .debug_info    0x00036473       0xd6 c:/program files (x86)/microchip/mplabc32/v2.02/bin/../lib/gcc/pic32mx/4.5.1/../../../../pic32mx/lib\libc.a(_fputc_simple.o)
 .debug_info    0x00036549        0x0 c:/program files (x86)/microchip/mplabc32/v2.02/bin/../lib/gcc/pic32mx/4.5.1/../../../../pic32mx/lib\libc.a(powers.o)
 .debug_info    0x00036549       0xd1 c:/program files (x86)/microchip/mplabc32/v2.02/bin/../lib/gcc/pic32mx/4.5.1/../../../../pic32mx/lib\libc.a(write.o)
 .debug_info    0x0003661a        0x0 c:/program files (x86)/microchip/mplabc32/v2.02/bin/../lib/gcc/pic32mx/4.5.1/../../../../pic32mx/lib\libc.a(_iob.o)
 .debug_info    0x0003661a       0xd9 c:/program files (x86)/microchip/mplabc32/v2.02/bin/../lib/gcc/pic32mx/4.5.1/../../../../pic32mx/lib\libc.a(_flsbuf_simple.o)
 .debug_info    0x000366f3       0xd9 c:/program files (x86)/microchip/mplabc32/v2.02/bin/../lib/gcc/pic32mx/4.5.1/../../../../pic32mx/lib\libc.a(_mon_putc.o)
 .debug_info    0x000367cc        0x0 c:/program files (x86)/microchip/mplabc32/v2.02/bin/../lib/gcc/pic32mx/4.5.1/../../../../pic32mx/lib\libc.a(c32_uart.o)
 .debug_info    0x000367cc       0xd4 c:/program files (x86)/microchip/mplabc32/v2.02/bin/../lib/gcc/pic32mx/4.5.1/../../../../pic32mx/lib\libm.a(w_sqrtf.o)
 .debug_info    0x000368a0        0x0 c:/program files (x86)/microchip/mplabc32/v2.02/bin/../lib/gcc/pic32mx/4.5.1/../../../../pic32mx/lib\libm.a(s_lib_ver.o)
 .debug_info    0x000368a0       0xf3 c:/program files (x86)/microchip/mplabc32/v2.02/bin/../lib/gcc/pic32mx/4.5.1/../../../../pic32mx/lib\libe.a(_floatdisf.o)
 .debug_info    0x00036993       0xe3 c:/program files (x86)/microchip/mplabc32/v2.02/bin/../lib/gcc/pic32mx/4.5.1/../../../../pic32mx/lib\libe.a(_strtod.o)
 .debug_info    0x00036a76       0xef c:/program files (x86)/microchip/mplabc32/v2.02/bin/../lib/gcc/pic32mx/4.5.1/../../../../pic32mx/lib\libe.a(_ldexp.o)
 .debug_info    0x00036b65       0xc7 c:/program files (x86)/microchip/mplabc32/v2.02/bin/../lib/gcc/pic32mx/4.5.1/../../../../pic32mx/lib\libmchp_peripheral_32MX795F512L.a(soft_reset_lib.o)
 .debug_info    0x00036c2c       0xd4 c:/program files (x86)/microchip/mplabc32/v2.02/bin/../lib/gcc/pic32mx/4.5.1/../../../../pic32mx/lib\libmchp_peripheral_32MX795F512L.a(pcache.o)
 .debug_info    0x00036d00       0xd5 c:/program files (x86)/microchip/mplabc32/v2.02/bin/../lib/gcc/pic32mx/4.5.1/../../../../pic32mx/lib\libmchp_peripheral_32MX795F512L.a(osc_config_lib.o)
 .debug_info    0x00036dd5       0xcb c:/program files (x86)/microchip/mplabc32/v2.02/bin/../lib/gcc/pic32mx/4.5.1/../../../../pic32mx/lib\libmchp_peripheral_32MX795F512L.a(int_disable_interrupts_lib.o)
 .debug_info    0x00036ea0       0xcb c:/program files (x86)/microchip/mplabc32/v2.02/bin/../lib/gcc/pic32mx/4.5.1/../../../../pic32mx/lib\libmchp_peripheral_32MX795F512L.a(int_restore_interrupts_lib.o)
 .debug_info    0x00036f6b       0xd1 c:/program files (x86)/microchip/mplabc32/v2.02/bin/../lib/gcc/pic32mx/4.5.1/../../../../pic32mx/lib\libmchp_peripheral_32MX795F512L.a(int_enable_mv_int_lib.o)
 .debug_info    0x0003703c      0x1ab c:/program files (x86)/microchip/mplabc32/v2.02/bin/../lib/gcc/pic32mx/4.5.1/../../../../pic32mx/lib\libmchp_peripheral_32MX795F512L.a(int_tbl_lib.o)
 .debug_info    0x000371e7       0xb7 c:/program files (x86)/microchip/mplabc32/v2.02/bin/../lib/gcc/pic32mx/4.5.1/../../../../pic32mx/lib\libmchp_peripheral_32MX795F512L.a(spi_chn_open_lib.o)
 .debug_info    0x0003729e        0x0 c:/program files (x86)/microchip/mplabc32/v2.02/bin/../lib/gcc/pic32mx/4.5.1/../../../../pic32mx/lib\libmchp_peripheral_32MX795F512L.a(spi_io_tbl_libp.o)
 .debug_info    0x0003729e        0x0 c:/program files (x86)/microchip/mplabc32/v2.02/bin/../lib/gcc/pic32mx/4.5.1/../../../../pic32mx/lib\libmchp_peripheral_32MX795F512L.a(spi_map_tbl_libp.o)
 .debug_info    0x0003729e       0xbb c:/program files (x86)/microchip/mplabc32/v2.02/bin/../lib/gcc/pic32mx/4.5.1/../../../../pic32mx/lib\libmchp_peripheral_32MX795F512L.a(nvm_erase_page_lib.o)
 .debug_info    0x00037359       0xdc c:/program files (x86)/microchip/mplabc32/v2.02/bin/../lib/gcc/pic32mx/4.5.1/../../../../pic32mx/lib\libmchp_peripheral_32MX795F512L.a(nvm_operation_lib.o)
 .debug_info    0x00037435       0xb9 c:/program files (x86)/microchip/mplabc32/v2.02/bin/../lib/gcc/pic32mx/4.5.1/../../../../pic32mx/lib\libmchp_peripheral_32MX795F512L.a(nvm_write_row_lib.o)
 .debug_info    0x000374ee       0xcf c:/program files (x86)/microchip/mplabc32/v2.02/bin/../lib/gcc/pic32mx/4.5.1/../../../../pic32mx/lib\libmchp_peripheral_32MX795F512L.a(port_set_pins_digital_in_lib.o)
 .debug_info    0x000375bd       0xd1 c:/program files (x86)/microchip/mplabc32/v2.02/bin/../lib/gcc/pic32mx/4.5.1/../../../../pic32mx/lib\libmchp_peripheral_32MX795F512L.a(port_set_pins_digital_out_lib.o)
 .debug_info    0x0003768e        0x0 c:/program files (x86)/microchip/mplabc32/v2.02/bin/../lib/gcc/pic32mx/4.5.1/../../../../pic32mx/lib\libmchp_peripheral_32MX795F512L.a(_ports_tbl_libp.o)
 .debug_info    0x0003768e      0x18a c:/program files (x86)/microchip/mplabc32/v2.02/bin/../lib/gcc/pic32mx/4.5.1/../../../../pic32mx/lib\libmchp_peripheral_32MX795F512L.a(uart_lib.o)
 .debug_info    0x00037818       0xc9 c:/program files (x86)/microchip/mplabc32/v2.02/bin/../lib/gcc/pic32mx/4.5.1/../../../../pic32mx/lib\libmchp_peripheral_32MX795F512L.a(int_enable_interrupts_lib.o)
 .debug_info    0x000378e1        0x0 c:/program files (x86)/microchip/mplabc32/v2.02/bin/../lib/gcc/pic32mx/4.5.1/../../../../pic32mx/lib\libc.a(errno.o)
 .debug_info    0x000378e1      0x349 c:/program files (x86)/microchip/mplabc32/v2.02/bin/../lib/gcc/pic32mx/4.5.1\libgcc.a(_lshrdi3.o)
 .debug_info    0x00037c2a      0x345 c:/program files (x86)/microchip/mplabc32/v2.02/bin/../lib/gcc/pic32mx/4.5.1\libgcc.a(_ashldi3.o)
 .debug_info    0x00037f6f      0x2d0 c:/program files (x86)/microchip/mplabc32/v2.02/bin/../lib/gcc/pic32mx/4.5.1\libgcc.a(_floatundisf.o)
 .debug_info    0x0003823f      0x783 c:/program files (x86)/microchip/mplabc32/v2.02/bin/../lib/gcc/pic32mx/4.5.1\libgcc.a(_udivdi3.o)
 .debug_info    0x000389c2      0x7c0 c:/program files (x86)/microchip/mplabc32/v2.02/bin/../lib/gcc/pic32mx/4.5.1\libgcc.a(_umoddi3.o)

.debug_abbrev   0x00000000     0x4a8d
 *(.debug_abbrev)
 .debug_abbrev  0x00000000      0x2a1 build/default/production/src/ads7846.o
 .debug_abbrev  0x000002a1       0xe7 build/default/production/src/anatype.o
 .debug_abbrev  0x00000388      0x1ca build/default/production/src/can.o
 .debug_abbrev  0x00000552      0x2a8 build/default/production/src/clock.o
 .debug_abbrev  0x000007fa      0x229 build/default/production/src/comsbusmaitre.o
 .debug_abbrev  0x00000a23      0x1dd build/default/production/src/config.o
 .debug_abbrev  0x00000c00       0xa8 build/default/production/src/echantillonnage.o
 .debug_abbrev  0x00000ca8      0x1a2 build/default/production/src/exceptions.o
 .debug_abbrev  0x00000e4a       0xbd build/default/production/src/font.o
 .debug_abbrev  0x00000f07      0x2b8 build/default/production/src/graphics.o
 .debug_abbrev  0x000011bf      0x288 build/default/production/src/gsm+.o
 .debug_abbrev  0x00001447      0x3d7 build/default/production/src/gsm.o
 .debug_abbrev  0x0000181e      0x1b0 build/default/production/src/image.o
 .debug_abbrev  0x000019ce       0x80 build/default/production/src/kalman.o
 .debug_abbrev  0x00001a4e      0x379 build/default/production/src/main.o
 .debug_abbrev  0x00001dc7      0x2b4 build/default/production/src/mtrxsbus.o
 .debug_abbrev  0x0000207b      0x1a0 build/default/production/src/pwm.o
 .debug_abbrev  0x0000221b      0x1ae build/default/production/src/relais.o
 .debug_abbrev  0x000023c9      0x2be build/default/production/src/rtc.o
 .debug_abbrev  0x00002687      0x240 build/default/production/src/s1d13700.o
 .debug_abbrev  0x000028c7      0x1f3 build/default/production/src/secteur.o
 .debug_abbrev  0x00002aba      0x2f7 build/default/production/src/slvxsbus.o
 .debug_abbrev  0x00002db1      0x22f build/default/production/src/timers.o
 .debug_abbrev  0x00002fe0      0x249 build/default/production/src/tor.o
 .debug_abbrev  0x00003229      0x395 build/default/production/src/uart.o
 .debug_abbrev  0x000035be      0x267 build/default/production/src/variables.o
 .debug_abbrev  0x00003825      0x1dc build/default/production/src/historique.o
 .debug_abbrev  0x00003a01      0x261 build/default/production/src/terminal.o
 .debug_abbrev  0x00003c62      0x18c build/default/production/src/eauglycolee.o
 .debug_abbrev  0x00003dee       0x61 c:/program files (x86)/microchip/mplabc32/v2.02/bin/../lib/gcc/pic32mx/4.5.1\libgcc.a(floatunsisf.o)
 .debug_abbrev  0x00003e4f       0x25 c:/program files (x86)/microchip/mplabc32/v2.02/bin/../lib/gcc/pic32mx/4.5.1/../../../../pic32mx/lib\libc.a(atoi.o)
 .debug_abbrev  0x00003e74       0x25 c:/program files (x86)/microchip/mplabc32/v2.02/bin/../lib/gcc/pic32mx/4.5.1/../../../../pic32mx/lib\libc.a(atol.o)
 .debug_abbrev  0x00003e99       0x32 c:/program files (x86)/microchip/mplabc32/v2.02/bin/../lib/gcc/pic32mx/4.5.1/../../../../pic32mx/lib\libc.a(ctime.o)
 .debug_abbrev  0x00003ecb        0x1 c:/program files (x86)/microchip/mplabc32/v2.02/bin/../lib/gcc/pic32mx/4.5.1/../../../../pic32mx/lib\libc.a(ctype.o)
 .debug_abbrev  0x00003ecc       0x25 c:/program files (x86)/microchip/mplabc32/v2.02/bin/../lib/gcc/pic32mx/4.5.1/../../../../pic32mx/lib\libc.a(ctypef.o)
 .debug_abbrev  0x00003ef1       0x43 c:/program files (x86)/microchip/mplabc32/v2.02/bin/../lib/gcc/pic32mx/4.5.1/../../../../pic32mx/lib\libc.a(mktime.o)
 .debug_abbrev  0x00003f34       0x25 c:/program files (x86)/microchip/mplabc32/v2.02/bin/../lib/gcc/pic32mx/4.5.1/../../../../pic32mx/lib\libc.a(strcat.o)
 .debug_abbrev  0x00003f59       0x25 c:/program files (x86)/microchip/mplabc32/v2.02/bin/../lib/gcc/pic32mx/4.5.1/../../../../pic32mx/lib\libc.a(strchr.o)
 .debug_abbrev  0x00003f7e       0x25 c:/program files (x86)/microchip/mplabc32/v2.02/bin/../lib/gcc/pic32mx/4.5.1/../../../../pic32mx/lib\libc.a(strncat.o)
 .debug_abbrev  0x00003fa3       0x25 c:/program files (x86)/microchip/mplabc32/v2.02/bin/../lib/gcc/pic32mx/4.5.1/../../../../pic32mx/lib\libc.a(strncmp.o)
 .debug_abbrev  0x00003fc8       0x25 c:/program files (x86)/microchip/mplabc32/v2.02/bin/../lib/gcc/pic32mx/4.5.1/../../../../pic32mx/lib\libc.a(strncpy.o)
 .debug_abbrev  0x00003fed       0x25 c:/program files (x86)/microchip/mplabc32/v2.02/bin/../lib/gcc/pic32mx/4.5.1/../../../../pic32mx/lib\libc.a(strstr.o)
 .debug_abbrev  0x00004012       0x25 c:/program files (x86)/microchip/mplabc32/v2.02/bin/../lib/gcc/pic32mx/4.5.1/../../../../pic32mx/lib\libc.a(strtok.o)
 .debug_abbrev  0x00004037       0x25 c:/program files (x86)/microchip/mplabc32/v2.02/bin/../lib/gcc/pic32mx/4.5.1/../../../../pic32mx/lib\libc.a(xtoi.o)
 .debug_abbrev  0x0000405c       0x25 c:/program files (x86)/microchip/mplabc32/v2.02/bin/../lib/gcc/pic32mx/4.5.1/../../../../pic32mx/lib\libc.a(atof.o)
 .debug_abbrev  0x00004081       0x27 c:/program files (x86)/microchip/mplabc32/v2.02/bin/../lib/gcc/pic32mx/4.5.1/../../../../pic32mx/lib\libc.a(sprintf_cdfFnopsuxX.eo)
 .debug_abbrev  0x000040a8       0x25 c:/program files (x86)/microchip/mplabc32/v2.02/bin/../lib/gcc/pic32mx/4.5.1/../../../../pic32mx/lib\libc.a(default-bootstrap-exception-handler.o)
 .debug_abbrev  0x000040cd       0x25 c:/program files (x86)/microchip/mplabc32/v2.02/bin/../lib/gcc/pic32mx/4.5.1/../../../../pic32mx/lib\libc.a(default-on-reset.o)
 .debug_abbrev  0x000040f2       0x25 c:/program files (x86)/microchip/mplabc32/v2.02/bin/../lib/gcc/pic32mx/4.5.1/../../../../pic32mx/lib\libc.a(default-on-bootstrap.o)
 .debug_abbrev  0x00004117       0x25 c:/program files (x86)/microchip/mplabc32/v2.02/bin/../lib/gcc/pic32mx/4.5.1/../../../../pic32mx/lib\libc.a(strcspn.o)
 .debug_abbrev  0x0000413c       0x25 c:/program files (x86)/microchip/mplabc32/v2.02/bin/../lib/gcc/pic32mx/4.5.1/../../../../pic32mx/lib\libc.a(strspn.o)
 .debug_abbrev  0x00004161       0x49 c:/program files (x86)/microchip/mplabc32/v2.02/bin/../lib/gcc/pic32mx/4.5.1/../../../../pic32mx/lib\libc.a(strtod.o)
 .debug_abbrev  0x000041aa       0x45 c:/program files (x86)/microchip/mplabc32/v2.02/bin/../lib/gcc/pic32mx/4.5.1/../../../../pic32mx/lib\libc.a(doprnt_cdfFnopsuxX.eo)
 .debug_abbrev  0x000041ef       0x27 c:/program files (x86)/microchip/mplabc32/v2.02/bin/../lib/gcc/pic32mx/4.5.1/../../../../pic32mx/lib\libc.a(_fputc_simple.o)
 .debug_abbrev  0x00004216        0x1 c:/program files (x86)/microchip/mplabc32/v2.02/bin/../lib/gcc/pic32mx/4.5.1/../../../../pic32mx/lib\libc.a(powers.o)
 .debug_abbrev  0x00004217       0x25 c:/program files (x86)/microchip/mplabc32/v2.02/bin/../lib/gcc/pic32mx/4.5.1/../../../../pic32mx/lib\libc.a(write.o)
 .debug_abbrev  0x0000423c        0x1 c:/program files (x86)/microchip/mplabc32/v2.02/bin/../lib/gcc/pic32mx/4.5.1/../../../../pic32mx/lib\libc.a(_iob.o)
 .debug_abbrev  0x0000423d       0x27 c:/program files (x86)/microchip/mplabc32/v2.02/bin/../lib/gcc/pic32mx/4.5.1/../../../../pic32mx/lib\libc.a(_flsbuf_simple.o)
 .debug_abbrev  0x00004264       0x25 c:/program files (x86)/microchip/mplabc32/v2.02/bin/../lib/gcc/pic32mx/4.5.1/../../../../pic32mx/lib\libc.a(_mon_putc.o)
 .debug_abbrev  0x00004289        0x1 c:/program files (x86)/microchip/mplabc32/v2.02/bin/../lib/gcc/pic32mx/4.5.1/../../../../pic32mx/lib\libc.a(c32_uart.o)
 .debug_abbrev  0x0000428a       0x25 c:/program files (x86)/microchip/mplabc32/v2.02/bin/../lib/gcc/pic32mx/4.5.1/../../../../pic32mx/lib\libm.a(w_sqrtf.o)
 .debug_abbrev  0x000042af        0x1 c:/program files (x86)/microchip/mplabc32/v2.02/bin/../lib/gcc/pic32mx/4.5.1/../../../../pic32mx/lib\libm.a(s_lib_ver.o)
 .debug_abbrev  0x000042b0       0x32 c:/program files (x86)/microchip/mplabc32/v2.02/bin/../lib/gcc/pic32mx/4.5.1/../../../../pic32mx/lib\libe.a(_floatdisf.o)
 .debug_abbrev  0x000042e2       0x32 c:/program files (x86)/microchip/mplabc32/v2.02/bin/../lib/gcc/pic32mx/4.5.1/../../../../pic32mx/lib\libe.a(_strtod.o)
 .debug_abbrev  0x00004314       0x32 c:/program files (x86)/microchip/mplabc32/v2.02/bin/../lib/gcc/pic32mx/4.5.1/../../../../pic32mx/lib\libe.a(_ldexp.o)
 .debug_abbrev  0x00004346       0x34 c:/program files (x86)/microchip/mplabc32/v2.02/bin/../lib/gcc/pic32mx/4.5.1/../../../../pic32mx/lib\libmchp_peripheral_32MX795F512L.a(soft_reset_lib.o)
 .debug_abbrev  0x0000437a       0x25 c:/program files (x86)/microchip/mplabc32/v2.02/bin/../lib/gcc/pic32mx/4.5.1/../../../../pic32mx/lib\libmchp_peripheral_32MX795F512L.a(pcache.o)
 .debug_abbrev  0x0000439f       0x34 c:/program files (x86)/microchip/mplabc32/v2.02/bin/../lib/gcc/pic32mx/4.5.1/../../../../pic32mx/lib\libmchp_peripheral_32MX795F512L.a(osc_config_lib.o)
 .debug_abbrev  0x000043d3       0x25 c:/program files (x86)/microchip/mplabc32/v2.02/bin/../lib/gcc/pic32mx/4.5.1/../../../../pic32mx/lib\libmchp_peripheral_32MX795F512L.a(int_disable_interrupts_lib.o)
 .debug_abbrev  0x000043f8       0x25 c:/program files (x86)/microchip/mplabc32/v2.02/bin/../lib/gcc/pic32mx/4.5.1/../../../../pic32mx/lib\libmchp_peripheral_32MX795F512L.a(int_restore_interrupts_lib.o)
 .debug_abbrev  0x0000441d       0x25 c:/program files (x86)/microchip/mplabc32/v2.02/bin/../lib/gcc/pic32mx/4.5.1/../../../../pic32mx/lib\libmchp_peripheral_32MX795F512L.a(int_enable_mv_int_lib.o)
 .debug_abbrev  0x00004442       0x25 c:/program files (x86)/microchip/mplabc32/v2.02/bin/../lib/gcc/pic32mx/4.5.1/../../../../pic32mx/lib\libmchp_peripheral_32MX795F512L.a(int_tbl_lib.o)
 .debug_abbrev  0x00004467       0x25 c:/program files (x86)/microchip/mplabc32/v2.02/bin/../lib/gcc/pic32mx/4.5.1/../../../../pic32mx/lib\libmchp_peripheral_32MX795F512L.a(spi_chn_open_lib.o)
 .debug_abbrev  0x0000448c        0x1 c:/program files (x86)/microchip/mplabc32/v2.02/bin/../lib/gcc/pic32mx/4.5.1/../../../../pic32mx/lib\libmchp_peripheral_32MX795F512L.a(spi_io_tbl_libp.o)
 .debug_abbrev  0x0000448d        0x1 c:/program files (x86)/microchip/mplabc32/v2.02/bin/../lib/gcc/pic32mx/4.5.1/../../../../pic32mx/lib\libmchp_peripheral_32MX795F512L.a(spi_map_tbl_libp.o)
 .debug_abbrev  0x0000448e       0x25 c:/program files (x86)/microchip/mplabc32/v2.02/bin/../lib/gcc/pic32mx/4.5.1/../../../../pic32mx/lib\libmchp_peripheral_32MX795F512L.a(nvm_erase_page_lib.o)
 .debug_abbrev  0x000044b3       0x34 c:/program files (x86)/microchip/mplabc32/v2.02/bin/../lib/gcc/pic32mx/4.5.1/../../../../pic32mx/lib\libmchp_peripheral_32MX795F512L.a(nvm_operation_lib.o)
 .debug_abbrev  0x000044e7       0x25 c:/program files (x86)/microchip/mplabc32/v2.02/bin/../lib/gcc/pic32mx/4.5.1/../../../../pic32mx/lib\libmchp_peripheral_32MX795F512L.a(nvm_write_row_lib.o)
 .debug_abbrev  0x0000450c       0x25 c:/program files (x86)/microchip/mplabc32/v2.02/bin/../lib/gcc/pic32mx/4.5.1/../../../../pic32mx/lib\libmchp_peripheral_32MX795F512L.a(port_set_pins_digital_in_lib.o)
 .debug_abbrev  0x00004531       0x25 c:/program files (x86)/microchip/mplabc32/v2.02/bin/../lib/gcc/pic32mx/4.5.1/../../../../pic32mx/lib\libmchp_peripheral_32MX795F512L.a(port_set_pins_digital_out_lib.o)
 .debug_abbrev  0x00004556        0x1 c:/program files (x86)/microchip/mplabc32/v2.02/bin/../lib/gcc/pic32mx/4.5.1/../../../../pic32mx/lib\libmchp_peripheral_32MX795F512L.a(_ports_tbl_libp.o)
 .debug_abbrev  0x00004557       0x38 c:/program files (x86)/microchip/mplabc32/v2.02/bin/../lib/gcc/pic32mx/4.5.1/../../../../pic32mx/lib\libmchp_peripheral_32MX795F512L.a(uart_lib.o)
 .debug_abbrev  0x0000458f       0x25 c:/program files (x86)/microchip/mplabc32/v2.02/bin/../lib/gcc/pic32mx/4.5.1/../../../../pic32mx/lib\libmchp_peripheral_32MX795F512L.a(int_enable_interrupts_lib.o)
 .debug_abbrev  0x000045b4        0x1 c:/program files (x86)/microchip/mplabc32/v2.02/bin/../lib/gcc/pic32mx/4.5.1/../../../../pic32mx/lib\libc.a(errno.o)
 .debug_abbrev  0x000045b5       0xe3 c:/program files (x86)/microchip/mplabc32/v2.02/bin/../lib/gcc/pic32mx/4.5.1\libgcc.a(_lshrdi3.o)
 .debug_abbrev  0x00004698       0xe3 c:/program files (x86)/microchip/mplabc32/v2.02/bin/../lib/gcc/pic32mx/4.5.1\libgcc.a(_ashldi3.o)
 .debug_abbrev  0x0000477b       0x79 c:/program files (x86)/microchip/mplabc32/v2.02/bin/../lib/gcc/pic32mx/4.5.1\libgcc.a(_floatundisf.o)
 .debug_abbrev  0x000047f4      0x13d c:/program files (x86)/microchip/mplabc32/v2.02/bin/../lib/gcc/pic32mx/4.5.1\libgcc.a(_udivdi3.o)
 .debug_abbrev  0x00004931      0x15c c:/program files (x86)/microchip/mplabc32/v2.02/bin/../lib/gcc/pic32mx/4.5.1\libgcc.a(_umoddi3.o)

.debug_line     0x00000000     0x7f1f
 *(.debug_line)
 .debug_line    0x00000000      0x28b build/default/production/src/ads7846.o
 .debug_line    0x0000028b      0x21c build/default/production/src/anatype.o
 .debug_line    0x000004a7      0x21e build/default/production/src/can.o
 .debug_line    0x000006c5      0x253 build/default/production/src/clock.o
 .debug_line    0x00000918      0x49e build/default/production/src/comsbusmaitre.o
 .debug_line    0x00000db6      0x1f8 build/default/production/src/config.o
 .debug_line    0x00000fae      0x1f8 build/default/production/src/echantillonnage.o
 .debug_line    0x000011a6      0x1d3 build/default/production/src/exceptions.o
 .debug_line    0x00001379       0x2b build/default/production/src/font.o
 .debug_line    0x000013a4      0x4a1 build/default/production/src/graphics.o
 .debug_line    0x00001845      0x791 build/default/production/src/gsm+.o
 .debug_line    0x00001fd6     0x137f build/default/production/src/gsm.o
 .debug_line    0x00003355      0x1b9 build/default/production/src/image.o
 .debug_line    0x0000350e       0x45 build/default/production/src/kalman.o
 .debug_line    0x00003553      0x3cf build/default/production/src/main.o
 .debug_line    0x00003922      0x55f build/default/production/src/mtrxsbus.o
 .debug_line    0x00003e81      0x1e2 build/default/production/src/pwm.o
 .debug_line    0x00004063      0x1f1 build/default/production/src/relais.o
 .debug_line    0x00004254      0x29e build/default/production/src/rtc.o
 .debug_line    0x000044f2      0x298 build/default/production/src/s1d13700.o
 .debug_line    0x0000478a      0x254 build/default/production/src/secteur.o
 .debug_line    0x000049de      0x65c build/default/production/src/slvxsbus.o
 .debug_line    0x0000503a      0x23e build/default/production/src/timers.o
 .debug_line    0x00005278      0x4aa build/default/production/src/tor.o
 .debug_line    0x00005722      0x42b build/default/production/src/uart.o
 .debug_line    0x00005b4d      0x26b build/default/production/src/variables.o
 .debug_line    0x00005db8      0x1fa build/default/production/src/historique.o
 .debug_line    0x00005fb2      0x266 build/default/production/src/terminal.o
 .debug_line    0x00006218      0x1d4 build/default/production/src/eauglycolee.o
 .debug_line    0x000063ec       0x6d c:/program files (x86)/microchip/mplabc32/v2.02/bin/../lib/gcc/pic32mx/4.5.1\libgcc.a(floatunsisf.o)
 .debug_line    0x00006459       0x85 c:/program files (x86)/microchip/mplabc32/v2.02/bin/../lib/gcc/pic32mx/4.5.1/../../../../pic32mx/lib\libc.a(atoi.o)
 .debug_line    0x000064de       0x85 c:/program files (x86)/microchip/mplabc32/v2.02/bin/../lib/gcc/pic32mx/4.5.1/../../../../pic32mx/lib\libc.a(atol.o)
 .debug_line    0x00006563       0x86 c:/program files (x86)/microchip/mplabc32/v2.02/bin/../lib/gcc/pic32mx/4.5.1/../../../../pic32mx/lib\libc.a(ctime.o)
 .debug_line    0x000065e9        0x0 c:/program files (x86)/microchip/mplabc32/v2.02/bin/../lib/gcc/pic32mx/4.5.1/../../../../pic32mx/lib\libc.a(ctype.o)
 .debug_line    0x000065e9       0x87 c:/program files (x86)/microchip/mplabc32/v2.02/bin/../lib/gcc/pic32mx/4.5.1/../../../../pic32mx/lib\libc.a(ctypef.o)
 .debug_line    0x00006670       0x87 c:/program files (x86)/microchip/mplabc32/v2.02/bin/../lib/gcc/pic32mx/4.5.1/../../../../pic32mx/lib\libc.a(mktime.o)
 .debug_line    0x000066f7       0x87 c:/program files (x86)/microchip/mplabc32/v2.02/bin/../lib/gcc/pic32mx/4.5.1/../../../../pic32mx/lib\libc.a(strcat.o)
 .debug_line    0x0000677e       0x87 c:/program files (x86)/microchip/mplabc32/v2.02/bin/../lib/gcc/pic32mx/4.5.1/../../../../pic32mx/lib\libc.a(strchr.o)
 .debug_line    0x00006805       0x88 c:/program files (x86)/microchip/mplabc32/v2.02/bin/../lib/gcc/pic32mx/4.5.1/../../../../pic32mx/lib\libc.a(strncat.o)
 .debug_line    0x0000688d       0x88 c:/program files (x86)/microchip/mplabc32/v2.02/bin/../lib/gcc/pic32mx/4.5.1/../../../../pic32mx/lib\libc.a(strncmp.o)
 .debug_line    0x00006915       0x88 c:/program files (x86)/microchip/mplabc32/v2.02/bin/../lib/gcc/pic32mx/4.5.1/../../../../pic32mx/lib\libc.a(strncpy.o)
 .debug_line    0x0000699d       0x87 c:/program files (x86)/microchip/mplabc32/v2.02/bin/../lib/gcc/pic32mx/4.5.1/../../../../pic32mx/lib\libc.a(strstr.o)
 .debug_line    0x00006a24       0x87 c:/program files (x86)/microchip/mplabc32/v2.02/bin/../lib/gcc/pic32mx/4.5.1/../../../../pic32mx/lib\libc.a(strtok.o)
 .debug_line    0x00006aab       0x85 c:/program files (x86)/microchip/mplabc32/v2.02/bin/../lib/gcc/pic32mx/4.5.1/../../../../pic32mx/lib\libc.a(xtoi.o)
 .debug_line    0x00006b30       0x85 c:/program files (x86)/microchip/mplabc32/v2.02/bin/../lib/gcc/pic32mx/4.5.1/../../../../pic32mx/lib\libc.a(atof.o)
 .debug_line    0x00006bb5       0x31 c:/program files (x86)/microchip/mplabc32/v2.02/bin/../lib/gcc/pic32mx/4.5.1/../../../../pic32mx/lib\libc.a(sprintf_cdfFnopsuxX.eo)
 .debug_line    0x00006be6       0xa6 c:/program files (x86)/microchip/mplabc32/v2.02/bin/../lib/gcc/pic32mx/4.5.1/../../../../pic32mx/lib\libc.a(default-bootstrap-exception-handler.o)
 .debug_line    0x00006c8c       0x93 c:/program files (x86)/microchip/mplabc32/v2.02/bin/../lib/gcc/pic32mx/4.5.1/../../../../pic32mx/lib\libc.a(default-on-reset.o)
 .debug_line    0x00006d1f       0x97 c:/program files (x86)/microchip/mplabc32/v2.02/bin/../lib/gcc/pic32mx/4.5.1/../../../../pic32mx/lib\libc.a(default-on-bootstrap.o)
 .debug_line    0x00006db6       0x88 c:/program files (x86)/microchip/mplabc32/v2.02/bin/../lib/gcc/pic32mx/4.5.1/../../../../pic32mx/lib\libc.a(strcspn.o)
 .debug_line    0x00006e3e       0x87 c:/program files (x86)/microchip/mplabc32/v2.02/bin/../lib/gcc/pic32mx/4.5.1/../../../../pic32mx/lib\libc.a(strspn.o)
 .debug_line    0x00006ec5       0x87 c:/program files (x86)/microchip/mplabc32/v2.02/bin/../lib/gcc/pic32mx/4.5.1/../../../../pic32mx/lib\libc.a(strtod.o)
 .debug_line    0x00006f4c       0x30 c:/program files (x86)/microchip/mplabc32/v2.02/bin/../lib/gcc/pic32mx/4.5.1/../../../../pic32mx/lib\libc.a(doprnt_cdfFnopsuxX.eo)
 .debug_line    0x00006f7c       0x2f c:/program files (x86)/microchip/mplabc32/v2.02/bin/../lib/gcc/pic32mx/4.5.1/../../../../pic32mx/lib\libc.a(_fputc_simple.o)
 .debug_line    0x00006fab        0x0 c:/program files (x86)/microchip/mplabc32/v2.02/bin/../lib/gcc/pic32mx/4.5.1/../../../../pic32mx/lib\libc.a(powers.o)
 .debug_line    0x00006fab       0x88 c:/program files (x86)/microchip/mplabc32/v2.02/bin/../lib/gcc/pic32mx/4.5.1/../../../../pic32mx/lib\libc.a(write.o)
 .debug_line    0x00007033        0x0 c:/program files (x86)/microchip/mplabc32/v2.02/bin/../lib/gcc/pic32mx/4.5.1/../../../../pic32mx/lib\libc.a(_iob.o)
 .debug_line    0x00007033       0x30 c:/program files (x86)/microchip/mplabc32/v2.02/bin/../lib/gcc/pic32mx/4.5.1/../../../../pic32mx/lib\libc.a(_flsbuf_simple.o)
 .debug_line    0x00007063       0x8c c:/program files (x86)/microchip/mplabc32/v2.02/bin/../lib/gcc/pic32mx/4.5.1/../../../../pic32mx/lib\libc.a(_mon_putc.o)
 .debug_line    0x000070ef        0x0 c:/program files (x86)/microchip/mplabc32/v2.02/bin/../lib/gcc/pic32mx/4.5.1/../../../../pic32mx/lib\libc.a(c32_uart.o)
 .debug_line    0x000070ef       0x8b c:/program files (x86)/microchip/mplabc32/v2.02/bin/../lib/gcc/pic32mx/4.5.1/../../../../pic32mx/lib\libm.a(w_sqrtf.o)
 .debug_line    0x0000717a        0x0 c:/program files (x86)/microchip/mplabc32/v2.02/bin/../lib/gcc/pic32mx/4.5.1/../../../../pic32mx/lib\libm.a(s_lib_ver.o)
 .debug_line    0x0000717a       0xa6 c:/program files (x86)/microchip/mplabc32/v2.02/bin/../lib/gcc/pic32mx/4.5.1/../../../../pic32mx/lib\libe.a(_floatdisf.o)
 .debug_line    0x00007220       0x93 c:/program files (x86)/microchip/mplabc32/v2.02/bin/../lib/gcc/pic32mx/4.5.1/../../../../pic32mx/lib\libe.a(_strtod.o)
 .debug_line    0x000072b3       0xa6 c:/program files (x86)/microchip/mplabc32/v2.02/bin/../lib/gcc/pic32mx/4.5.1/../../../../pic32mx/lib\libe.a(_ldexp.o)
 .debug_line    0x00007359       0xbf c:/program files (x86)/microchip/mplabc32/v2.02/bin/../lib/gcc/pic32mx/4.5.1/../../../../pic32mx/lib\libmchp_peripheral_32MX795F512L.a(soft_reset_lib.o)
 .debug_line    0x00007418       0x62 c:/program files (x86)/microchip/mplabc32/v2.02/bin/../lib/gcc/pic32mx/4.5.1/../../../../pic32mx/lib\libmchp_peripheral_32MX795F512L.a(pcache.o)
 .debug_line    0x0000747a       0xbd c:/program files (x86)/microchip/mplabc32/v2.02/bin/../lib/gcc/pic32mx/4.5.1/../../../../pic32mx/lib\libmchp_peripheral_32MX795F512L.a(osc_config_lib.o)
 .debug_line    0x00007537       0x73 c:/program files (x86)/microchip/mplabc32/v2.02/bin/../lib/gcc/pic32mx/4.5.1/../../../../pic32mx/lib\libmchp_peripheral_32MX795F512L.a(int_disable_interrupts_lib.o)
 .debug_line    0x000075aa       0x73 c:/program files (x86)/microchip/mplabc32/v2.02/bin/../lib/gcc/pic32mx/4.5.1/../../../../pic32mx/lib\libmchp_peripheral_32MX795F512L.a(int_restore_interrupts_lib.o)
 .debug_line    0x0000761d       0x6e c:/program files (x86)/microchip/mplabc32/v2.02/bin/../lib/gcc/pic32mx/4.5.1/../../../../pic32mx/lib\libmchp_peripheral_32MX795F512L.a(int_enable_mv_int_lib.o)
 .debug_line    0x0000768b       0x64 c:/program files (x86)/microchip/mplabc32/v2.02/bin/../lib/gcc/pic32mx/4.5.1/../../../../pic32mx/lib\libmchp_peripheral_32MX795F512L.a(int_tbl_lib.o)
 .debug_line    0x000076ef       0x69 c:/program files (x86)/microchip/mplabc32/v2.02/bin/../lib/gcc/pic32mx/4.5.1/../../../../pic32mx/lib\libmchp_peripheral_32MX795F512L.a(spi_chn_open_lib.o)
 .debug_line    0x00007758        0x0 c:/program files (x86)/microchip/mplabc32/v2.02/bin/../lib/gcc/pic32mx/4.5.1/../../../../pic32mx/lib\libmchp_peripheral_32MX795F512L.a(spi_io_tbl_libp.o)
 .debug_line    0x00007758        0x0 c:/program files (x86)/microchip/mplabc32/v2.02/bin/../lib/gcc/pic32mx/4.5.1/../../../../pic32mx/lib\libmchp_peripheral_32MX795F512L.a(spi_map_tbl_libp.o)
 .debug_line    0x00007758       0x6b c:/program files (x86)/microchip/mplabc32/v2.02/bin/../lib/gcc/pic32mx/4.5.1/../../../../pic32mx/lib\libmchp_peripheral_32MX795F512L.a(nvm_erase_page_lib.o)
 .debug_line    0x000077c3       0xc0 c:/program files (x86)/microchip/mplabc32/v2.02/bin/../lib/gcc/pic32mx/4.5.1/../../../../pic32mx/lib\libmchp_peripheral_32MX795F512L.a(nvm_operation_lib.o)
 .debug_line    0x00007883       0x6a c:/program files (x86)/microchip/mplabc32/v2.02/bin/../lib/gcc/pic32mx/4.5.1/../../../../pic32mx/lib\libmchp_peripheral_32MX795F512L.a(nvm_write_row_lib.o)
 .debug_line    0x000078ed       0x77 c:/program files (x86)/microchip/mplabc32/v2.02/bin/../lib/gcc/pic32mx/4.5.1/../../../../pic32mx/lib\libmchp_peripheral_32MX795F512L.a(port_set_pins_digital_in_lib.o)
 .debug_line    0x00007964       0x78 c:/program files (x86)/microchip/mplabc32/v2.02/bin/../lib/gcc/pic32mx/4.5.1/../../../../pic32mx/lib\libmchp_peripheral_32MX795F512L.a(port_set_pins_digital_out_lib.o)
 .debug_line    0x000079dc        0x0 c:/program files (x86)/microchip/mplabc32/v2.02/bin/../lib/gcc/pic32mx/4.5.1/../../../../pic32mx/lib\libmchp_peripheral_32MX795F512L.a(_ports_tbl_libp.o)
 .debug_line    0x000079dc       0x62 c:/program files (x86)/microchip/mplabc32/v2.02/bin/../lib/gcc/pic32mx/4.5.1/../../../../pic32mx/lib\libmchp_peripheral_32MX795F512L.a(uart_lib.o)
 .debug_line    0x00007a3e       0x72 c:/program files (x86)/microchip/mplabc32/v2.02/bin/../lib/gcc/pic32mx/4.5.1/../../../../pic32mx/lib\libmchp_peripheral_32MX795F512L.a(int_enable_interrupts_lib.o)
 .debug_line    0x00007ab0        0x0 c:/program files (x86)/microchip/mplabc32/v2.02/bin/../lib/gcc/pic32mx/4.5.1/../../../../pic32mx/lib\libc.a(errno.o)
 .debug_line    0x00007ab0       0xb8 c:/program files (x86)/microchip/mplabc32/v2.02/bin/../lib/gcc/pic32mx/4.5.1\libgcc.a(_lshrdi3.o)
 .debug_line    0x00007b68       0xba c:/program files (x86)/microchip/mplabc32/v2.02/bin/../lib/gcc/pic32mx/4.5.1\libgcc.a(_ashldi3.o)
 .debug_line    0x00007c22       0xc3 c:/program files (x86)/microchip/mplabc32/v2.02/bin/../lib/gcc/pic32mx/4.5.1\libgcc.a(_floatundisf.o)
 .debug_line    0x00007ce5      0x112 c:/program files (x86)/microchip/mplabc32/v2.02/bin/../lib/gcc/pic32mx/4.5.1\libgcc.a(_udivdi3.o)
 .debug_line    0x00007df7      0x128 c:/program files (x86)/microchip/mplabc32/v2.02/bin/../lib/gcc/pic32mx/4.5.1\libgcc.a(_umoddi3.o)

.debug_frame    0x00000000     0x260c
 *(.debug_frame)
 .debug_frame   0x00000000      0x104 build/default/production/src/ads7846.o
 .debug_frame   0x00000104       0x7c build/default/production/src/anatype.o
 .debug_frame   0x00000180       0x60 build/default/production/src/can.o
 .debug_frame   0x000001e0      0x158 build/default/production/src/clock.o
 .debug_frame   0x00000338       0x64 build/default/production/src/comsbusmaitre.o
 .debug_frame   0x0000039c       0xc8 build/default/production/src/config.o
 .debug_frame   0x00000464       0x54 build/default/production/src/echantillonnage.o
 .debug_frame   0x000004b8       0x28 build/default/production/src/exceptions.o
 .debug_frame   0x000004e0      0x1d0 build/default/production/src/graphics.o
 .debug_frame   0x000006b0       0xc8 build/default/production/src/gsm+.o
 .debug_frame   0x00000778      0x354 build/default/production/src/gsm.o
 .debug_frame   0x00000acc       0x38 build/default/production/src/kalman.o
 .debug_frame   0x00000b04       0x84 build/default/production/src/main.o
 .debug_frame   0x00000b88      0x1c4 build/default/production/src/mtrxsbus.o
 .debug_frame   0x00000d4c       0x5c build/default/production/src/pwm.o
 .debug_frame   0x00000da8       0x44 build/default/production/src/relais.o
 .debug_frame   0x00000dec      0x208 build/default/production/src/rtc.o
 .debug_frame   0x00000ff4       0xd0 build/default/production/src/s1d13700.o
 .debug_frame   0x000010c4       0xf8 build/default/production/src/secteur.o
 .debug_frame   0x000011bc      0x264 build/default/production/src/slvxsbus.o
 .debug_frame   0x00001420       0xe0 build/default/production/src/timers.o
 .debug_frame   0x00001500      0x1a8 build/default/production/src/tor.o
 .debug_frame   0x000016a8      0x360 build/default/production/src/uart.o
 .debug_frame   0x00001a08      0x114 build/default/production/src/variables.o
 .debug_frame   0x00001b1c       0x64 build/default/production/src/historique.o
 .debug_frame   0x00001b80       0x7c build/default/production/src/terminal.o
 .debug_frame   0x00001bfc       0x30 build/default/production/src/eauglycolee.o
 .debug_frame   0x00001c2c       0x28 c:/program files (x86)/microchip/mplabc32/v2.02/bin/../lib/gcc/pic32mx/4.5.1\libgcc.a(floatunsisf.o)
 .debug_frame   0x00001c54       0x20 c:/program files (x86)/microchip/mplabc32/v2.02/bin/../lib/gcc/pic32mx/4.5.1/../../../../pic32mx/lib\libc.a(atoi.o)
 .debug_frame   0x00001c74       0x20 c:/program files (x86)/microchip/mplabc32/v2.02/bin/../lib/gcc/pic32mx/4.5.1/../../../../pic32mx/lib\libc.a(atol.o)
 .debug_frame   0x00001c94       0x60 c:/program files (x86)/microchip/mplabc32/v2.02/bin/../lib/gcc/pic32mx/4.5.1/../../../../pic32mx/lib\libc.a(ctime.o)
 .debug_frame   0x00001cf4      0x120 c:/program files (x86)/microchip/mplabc32/v2.02/bin/../lib/gcc/pic32mx/4.5.1/../../../../pic32mx/lib\libc.a(ctypef.o)
 .debug_frame   0x00001e14       0x40 c:/program files (x86)/microchip/mplabc32/v2.02/bin/../lib/gcc/pic32mx/4.5.1/../../../../pic32mx/lib\libc.a(mktime.o)
 .debug_frame   0x00001e54       0x20 c:/program files (x86)/microchip/mplabc32/v2.02/bin/../lib/gcc/pic32mx/4.5.1/../../../../pic32mx/lib\libc.a(strcat.o)
 .debug_frame   0x00001e74       0x20 c:/program files (x86)/microchip/mplabc32/v2.02/bin/../lib/gcc/pic32mx/4.5.1/../../../../pic32mx/lib\libc.a(strchr.o)
 .debug_frame   0x00001e94       0x20 c:/program files (x86)/microchip/mplabc32/v2.02/bin/../lib/gcc/pic32mx/4.5.1/../../../../pic32mx/lib\libc.a(strncat.o)
 .debug_frame   0x00001eb4       0x20 c:/program files (x86)/microchip/mplabc32/v2.02/bin/../lib/gcc/pic32mx/4.5.1/../../../../pic32mx/lib\libc.a(strncmp.o)
 .debug_frame   0x00001ed4       0x20 c:/program files (x86)/microchip/mplabc32/v2.02/bin/../lib/gcc/pic32mx/4.5.1/../../../../pic32mx/lib\libc.a(strncpy.o)
 .debug_frame   0x00001ef4       0x2c c:/program files (x86)/microchip/mplabc32/v2.02/bin/../lib/gcc/pic32mx/4.5.1/../../../../pic32mx/lib\libc.a(strstr.o)
 .debug_frame   0x00001f20       0x2c c:/program files (x86)/microchip/mplabc32/v2.02/bin/../lib/gcc/pic32mx/4.5.1/../../../../pic32mx/lib\libc.a(strtok.o)
 .debug_frame   0x00001f4c       0x30 c:/program files (x86)/microchip/mplabc32/v2.02/bin/../lib/gcc/pic32mx/4.5.1/../../../../pic32mx/lib\libc.a(xtoi.o)
 .debug_frame   0x00001f7c       0x28 c:/program files (x86)/microchip/mplabc32/v2.02/bin/../lib/gcc/pic32mx/4.5.1/../../../../pic32mx/lib\libc.a(atof.o)
 .debug_frame   0x00001fa4       0x2c c:/program files (x86)/microchip/mplabc32/v2.02/bin/../lib/gcc/pic32mx/4.5.1/../../../../pic32mx/lib\libc.a(sprintf_cdfFnopsuxX.eo)
 .debug_frame   0x00001fd0       0x20 c:/program files (x86)/microchip/mplabc32/v2.02/bin/../lib/gcc/pic32mx/4.5.1/../../../../pic32mx/lib\libc.a(default-bootstrap-exception-handler.o)
 .debug_frame   0x00001ff0       0x20 c:/program files (x86)/microchip/mplabc32/v2.02/bin/../lib/gcc/pic32mx/4.5.1/../../../../pic32mx/lib\libc.a(default-on-reset.o)
 .debug_frame   0x00002010       0x20 c:/program files (x86)/microchip/mplabc32/v2.02/bin/../lib/gcc/pic32mx/4.5.1/../../../../pic32mx/lib\libc.a(default-on-bootstrap.o)
 .debug_frame   0x00002030       0x2c c:/program files (x86)/microchip/mplabc32/v2.02/bin/../lib/gcc/pic32mx/4.5.1/../../../../pic32mx/lib\libc.a(strcspn.o)
 .debug_frame   0x0000205c       0x2c c:/program files (x86)/microchip/mplabc32/v2.02/bin/../lib/gcc/pic32mx/4.5.1/../../../../pic32mx/lib\libc.a(strspn.o)
 .debug_frame   0x00002088       0x40 c:/program files (x86)/microchip/mplabc32/v2.02/bin/../lib/gcc/pic32mx/4.5.1/../../../../pic32mx/lib\libc.a(strtod.o)
 .debug_frame   0x000020c8       0x58 c:/program files (x86)/microchip/mplabc32/v2.02/bin/../lib/gcc/pic32mx/4.5.1/../../../../pic32mx/lib\libc.a(doprnt_cdfFnopsuxX.eo)
 .debug_frame   0x00002120       0x2c c:/program files (x86)/microchip/mplabc32/v2.02/bin/../lib/gcc/pic32mx/4.5.1/../../../../pic32mx/lib\libc.a(_fputc_simple.o)
 .debug_frame   0x0000214c       0x28 c:/program files (x86)/microchip/mplabc32/v2.02/bin/../lib/gcc/pic32mx/4.5.1/../../../../pic32mx/lib\libc.a(write.o)
 .debug_frame   0x00002174       0x28 c:/program files (x86)/microchip/mplabc32/v2.02/bin/../lib/gcc/pic32mx/4.5.1/../../../../pic32mx/lib\libc.a(_flsbuf_simple.o)
 .debug_frame   0x0000219c       0x20 c:/program files (x86)/microchip/mplabc32/v2.02/bin/../lib/gcc/pic32mx/4.5.1/../../../../pic32mx/lib\libc.a(_mon_putc.o)
 .debug_frame   0x000021bc       0x28 c:/program files (x86)/microchip/mplabc32/v2.02/bin/../lib/gcc/pic32mx/4.5.1/../../../../pic32mx/lib\libm.a(w_sqrtf.o)
 .debug_frame   0x000021e4       0x20 c:/program files (x86)/microchip/mplabc32/v2.02/bin/../lib/gcc/pic32mx/4.5.1/../../../../pic32mx/lib\libe.a(_floatdisf.o)
 .debug_frame   0x00002204       0x38 c:/program files (x86)/microchip/mplabc32/v2.02/bin/../lib/gcc/pic32mx/4.5.1/../../../../pic32mx/lib\libe.a(_strtod.o)
 .debug_frame   0x0000223c       0x34 c:/program files (x86)/microchip/mplabc32/v2.02/bin/../lib/gcc/pic32mx/4.5.1/../../../../pic32mx/lib\libe.a(_ldexp.o)
 .debug_frame   0x00002270       0x28 c:/program files (x86)/microchip/mplabc32/v2.02/bin/../lib/gcc/pic32mx/4.5.1/../../../../pic32mx/lib\libmchp_peripheral_32MX795F512L.a(soft_reset_lib.o)
 .debug_frame   0x00002298       0x30 c:/program files (x86)/microchip/mplabc32/v2.02/bin/../lib/gcc/pic32mx/4.5.1/../../../../pic32mx/lib\libmchp_peripheral_32MX795F512L.a(pcache.o)
 .debug_frame   0x000022c8       0x30 c:/program files (x86)/microchip/mplabc32/v2.02/bin/../lib/gcc/pic32mx/4.5.1/../../../../pic32mx/lib\libmchp_peripheral_32MX795F512L.a(osc_config_lib.o)
 .debug_frame   0x000022f8       0x20 c:/program files (x86)/microchip/mplabc32/v2.02/bin/../lib/gcc/pic32mx/4.5.1/../../../../pic32mx/lib\libmchp_peripheral_32MX795F512L.a(int_disable_interrupts_lib.o)
 .debug_frame   0x00002318       0x20 c:/program files (x86)/microchip/mplabc32/v2.02/bin/../lib/gcc/pic32mx/4.5.1/../../../../pic32mx/lib\libmchp_peripheral_32MX795F512L.a(int_restore_interrupts_lib.o)
 .debug_frame   0x00002338       0x28 c:/program files (x86)/microchip/mplabc32/v2.02/bin/../lib/gcc/pic32mx/4.5.1/../../../../pic32mx/lib\libmchp_peripheral_32MX795F512L.a(int_enable_mv_int_lib.o)
 .debug_frame   0x00002360       0xa0 c:/program files (x86)/microchip/mplabc32/v2.02/bin/../lib/gcc/pic32mx/4.5.1/../../../../pic32mx/lib\libmchp_peripheral_32MX795F512L.a(int_tbl_lib.o)
 .debug_frame   0x00002400       0x38 c:/program files (x86)/microchip/mplabc32/v2.02/bin/../lib/gcc/pic32mx/4.5.1/../../../../pic32mx/lib\libmchp_peripheral_32MX795F512L.a(spi_chn_open_lib.o)
 .debug_frame   0x00002438       0x28 c:/program files (x86)/microchip/mplabc32/v2.02/bin/../lib/gcc/pic32mx/4.5.1/../../../../pic32mx/lib\libmchp_peripheral_32MX795F512L.a(nvm_erase_page_lib.o)
 .debug_frame   0x00002460       0x28 c:/program files (x86)/microchip/mplabc32/v2.02/bin/../lib/gcc/pic32mx/4.5.1/../../../../pic32mx/lib\libmchp_peripheral_32MX795F512L.a(nvm_operation_lib.o)
 .debug_frame   0x00002488       0x28 c:/program files (x86)/microchip/mplabc32/v2.02/bin/../lib/gcc/pic32mx/4.5.1/../../../../pic32mx/lib\libmchp_peripheral_32MX795F512L.a(nvm_write_row_lib.o)
 .debug_frame   0x000024b0       0x20 c:/program files (x86)/microchip/mplabc32/v2.02/bin/../lib/gcc/pic32mx/4.5.1/../../../../pic32mx/lib\libmchp_peripheral_32MX795F512L.a(port_set_pins_digital_in_lib.o)
 .debug_frame   0x000024d0       0x20 c:/program files (x86)/microchip/mplabc32/v2.02/bin/../lib/gcc/pic32mx/4.5.1/../../../../pic32mx/lib\libmchp_peripheral_32MX795F512L.a(port_set_pins_digital_out_lib.o)
 .debug_frame   0x000024f0       0x90 c:/program files (x86)/microchip/mplabc32/v2.02/bin/../lib/gcc/pic32mx/4.5.1/../../../../pic32mx/lib\libmchp_peripheral_32MX795F512L.a(uart_lib.o)
 .debug_frame   0x00002580       0x20 c:/program files (x86)/microchip/mplabc32/v2.02/bin/../lib/gcc/pic32mx/4.5.1/../../../../pic32mx/lib\libmchp_peripheral_32MX795F512L.a(int_enable_interrupts_lib.o)
 .debug_frame   0x000025a0       0x20 c:/program files (x86)/microchip/mplabc32/v2.02/bin/../lib/gcc/pic32mx/4.5.1\libgcc.a(_lshrdi3.o)
 .debug_frame   0x000025c0       0x20 c:/program files (x86)/microchip/mplabc32/v2.02/bin/../lib/gcc/pic32mx/4.5.1\libgcc.a(_ashldi3.o)
 .debug_frame   0x000025e0       0x2c c:/program files (x86)/microchip/mplabc32/v2.02/bin/../lib/gcc/pic32mx/4.5.1\libgcc.a(_floatundisf.o)

.debug_str      0x00000000     0x354e
 *(.debug_str)
 .debug_str     0x00000000      0x187 build/default/production/src/ads7846.o
 .debug_str     0x00000187        0xd build/default/production/src/anatype.o
 .debug_str     0x00000194      0x1db build/default/production/src/can.o
 .debug_str     0x0000036f      0x1ef build/default/production/src/clock.o
 .debug_str     0x0000055e      0x254 build/default/production/src/comsbusmaitre.o
 .debug_str     0x000007b2      0x148 build/default/production/src/config.o
 .debug_str     0x000008fa        0x0 build/default/production/src/echantillonnage.o
 .debug_str     0x000008fa      0x152 build/default/production/src/exceptions.o
 .debug_str     0x00000a4c        0x0 build/default/production/src/font.o
 .debug_str     0x00000a4c      0x219 build/default/production/src/graphics.o
 .debug_str     0x00000c65      0x29e build/default/production/src/gsm+.o
 .debug_str     0x00000f03      0xaff build/default/production/src/gsm.o
 .debug_str     0x00001a02      0x12f build/default/production/src/image.o
 .debug_str     0x00001b31        0x0 build/default/production/src/kalman.o
 .debug_str     0x00001b31      0x30f build/default/production/src/main.o
 .debug_str     0x00001e40      0x190 build/default/production/src/mtrxsbus.o
 .debug_str     0x00001fd0      0x142 build/default/production/src/pwm.o
 .debug_str     0x00002112      0x159 build/default/production/src/relais.o
 .debug_str     0x0000226b      0x1d4 build/default/production/src/rtc.o
 .debug_str     0x0000243f      0x197 build/default/production/src/s1d13700.o
 .debug_str     0x000025d6      0x172 build/default/production/src/secteur.o
 .debug_str     0x00002748      0x1bc build/default/production/src/slvxsbus.o
 .debug_str     0x00002904      0x177 build/default/production/src/timers.o
 .debug_str     0x00002a7b      0x273 build/default/production/src/tor.o
 .debug_str     0x00002cee      0x31e build/default/production/src/uart.o
 .debug_str     0x0000300c      0x176 build/default/production/src/variables.o
 .debug_str     0x00003182      0x138 build/default/production/src/historique.o
 .debug_str     0x000032ba      0x15c build/default/production/src/terminal.o
 .debug_str     0x00003416      0x12f build/default/production/src/eauglycolee.o
 .debug_str     0x00003545        0x0 c:/program files (x86)/microchip/mplabc32/v2.02/bin/../lib/gcc/pic32mx/4.5.1\libgcc.a(floatunsisf.o)
 .debug_str     0x00003545        0x0 c:/program files (x86)/microchip/mplabc32/v2.02/bin/../lib/gcc/pic32mx/4.5.1/../../../../pic32mx/lib\libc.a(atoi.o)
 .debug_str     0x00003545        0x0 c:/program files (x86)/microchip/mplabc32/v2.02/bin/../lib/gcc/pic32mx/4.5.1/../../../../pic32mx/lib\libc.a(atol.o)
 .debug_str     0x00003545        0x0 c:/program files (x86)/microchip/mplabc32/v2.02/bin/../lib/gcc/pic32mx/4.5.1/../../../../pic32mx/lib\libc.a(ctime.o)
 .debug_str     0x00003545        0x0 c:/program files (x86)/microchip/mplabc32/v2.02/bin/../lib/gcc/pic32mx/4.5.1/../../../../pic32mx/lib\libc.a(ctype.o)
 .debug_str     0x00003545        0x0 c:/program files (x86)/microchip/mplabc32/v2.02/bin/../lib/gcc/pic32mx/4.5.1/../../../../pic32mx/lib\libc.a(ctypef.o)
 .debug_str     0x00003545        0x0 c:/program files (x86)/microchip/mplabc32/v2.02/bin/../lib/gcc/pic32mx/4.5.1/../../../../pic32mx/lib\libc.a(mktime.o)
 .debug_str     0x00003545        0x0 c:/program files (x86)/microchip/mplabc32/v2.02/bin/../lib/gcc/pic32mx/4.5.1/../../../../pic32mx/lib\libc.a(strcat.o)
 .debug_str     0x00003545        0x0 c:/program files (x86)/microchip/mplabc32/v2.02/bin/../lib/gcc/pic32mx/4.5.1/../../../../pic32mx/lib\libc.a(strchr.o)
 .debug_str     0x00003545        0x0 c:/program files (x86)/microchip/mplabc32/v2.02/bin/../lib/gcc/pic32mx/4.5.1/../../../../pic32mx/lib\libc.a(strncat.o)
 .debug_str     0x00003545        0x0 c:/program files (x86)/microchip/mplabc32/v2.02/bin/../lib/gcc/pic32mx/4.5.1/../../../../pic32mx/lib\libc.a(strncmp.o)
 .debug_str     0x00003545        0x0 c:/program files (x86)/microchip/mplabc32/v2.02/bin/../lib/gcc/pic32mx/4.5.1/../../../../pic32mx/lib\libc.a(strncpy.o)
 .debug_str     0x00003545        0x0 c:/program files (x86)/microchip/mplabc32/v2.02/bin/../lib/gcc/pic32mx/4.5.1/../../../../pic32mx/lib\libc.a(strstr.o)
 .debug_str     0x00003545        0x0 c:/program files (x86)/microchip/mplabc32/v2.02/bin/../lib/gcc/pic32mx/4.5.1/../../../../pic32mx/lib\libc.a(strtok.o)
 .debug_str     0x00003545        0x0 c:/program files (x86)/microchip/mplabc32/v2.02/bin/../lib/gcc/pic32mx/4.5.1/../../../../pic32mx/lib\libc.a(xtoi.o)
 .debug_str     0x00003545        0x0 c:/program files (x86)/microchip/mplabc32/v2.02/bin/../lib/gcc/pic32mx/4.5.1/../../../../pic32mx/lib\libc.a(atof.o)
 .debug_str     0x00003545        0x0 c:/program files (x86)/microchip/mplabc32/v2.02/bin/../lib/gcc/pic32mx/4.5.1/../../../../pic32mx/lib\libc.a(sprintf_cdfFnopsuxX.eo)
 .debug_str     0x00003545        0x0 c:/program files (x86)/microchip/mplabc32/v2.02/bin/../lib/gcc/pic32mx/4.5.1/../../../../pic32mx/lib\libc.a(default-bootstrap-exception-handler.o)
 .debug_str     0x00003545        0x0 c:/program files (x86)/microchip/mplabc32/v2.02/bin/../lib/gcc/pic32mx/4.5.1/../../../../pic32mx/lib\libc.a(default-on-reset.o)
 .debug_str     0x00003545        0x0 c:/program files (x86)/microchip/mplabc32/v2.02/bin/../lib/gcc/pic32mx/4.5.1/../../../../pic32mx/lib\libc.a(default-on-bootstrap.o)
 .debug_str     0x00003545        0x0 c:/program files (x86)/microchip/mplabc32/v2.02/bin/../lib/gcc/pic32mx/4.5.1/../../../../pic32mx/lib\libc.a(strcspn.o)
 .debug_str     0x00003545        0x0 c:/program files (x86)/microchip/mplabc32/v2.02/bin/../lib/gcc/pic32mx/4.5.1/../../../../pic32mx/lib\libc.a(strspn.o)
 .debug_str     0x00003545        0x9 c:/program files (x86)/microchip/mplabc32/v2.02/bin/../lib/gcc/pic32mx/4.5.1/../../../../pic32mx/lib\libc.a(strtod.o)
 .debug_str     0x0000354e        0x0 c:/program files (x86)/microchip/mplabc32/v2.02/bin/../lib/gcc/pic32mx/4.5.1/../../../../pic32mx/lib\libc.a(doprnt_cdfFnopsuxX.eo)
 .debug_str     0x0000354e        0x0 c:/program files (x86)/microchip/mplabc32/v2.02/bin/../lib/gcc/pic32mx/4.5.1/../../../../pic32mx/lib\libc.a(_fputc_simple.o)
 .debug_str     0x0000354e        0x0 c:/program files (x86)/microchip/mplabc32/v2.02/bin/../lib/gcc/pic32mx/4.5.1/../../../../pic32mx/lib\libc.a(powers.o)
 .debug_str     0x0000354e        0x0 c:/program files (x86)/microchip/mplabc32/v2.02/bin/../lib/gcc/pic32mx/4.5.1/../../../../pic32mx/lib\libc.a(write.o)
 .debug_str     0x0000354e        0x0 c:/program files (x86)/microchip/mplabc32/v2.02/bin/../lib/gcc/pic32mx/4.5.1/../../../../pic32mx/lib\libc.a(_iob.o)
 .debug_str     0x0000354e        0x0 c:/program files (x86)/microchip/mplabc32/v2.02/bin/../lib/gcc/pic32mx/4.5.1/../../../../pic32mx/lib\libc.a(_flsbuf_simple.o)
 .debug_str     0x0000354e        0x0 c:/program files (x86)/microchip/mplabc32/v2.02/bin/../lib/gcc/pic32mx/4.5.1/../../../../pic32mx/lib\libc.a(_mon_putc.o)
 .debug_str     0x0000354e        0x0 c:/program files (x86)/microchip/mplabc32/v2.02/bin/../lib/gcc/pic32mx/4.5.1/../../../../pic32mx/lib\libc.a(c32_uart.o)
 .debug_str     0x0000354e        0x0 c:/program files (x86)/microchip/mplabc32/v2.02/bin/../lib/gcc/pic32mx/4.5.1/../../../../pic32mx/lib\libm.a(w_sqrtf.o)
 .debug_str     0x0000354e        0x0 c:/program files (x86)/microchip/mplabc32/v2.02/bin/../lib/gcc/pic32mx/4.5.1/../../../../pic32mx/lib\libm.a(s_lib_ver.o)
 .debug_str     0x0000354e        0x0 c:/program files (x86)/microchip/mplabc32/v2.02/bin/../lib/gcc/pic32mx/4.5.1/../../../../pic32mx/lib\libe.a(_floatdisf.o)
 .debug_str     0x0000354e        0x0 c:/program files (x86)/microchip/mplabc32/v2.02/bin/../lib/gcc/pic32mx/4.5.1/../../../../pic32mx/lib\libe.a(_strtod.o)
 .debug_str     0x0000354e        0x0 c:/program files (x86)/microchip/mplabc32/v2.02/bin/../lib/gcc/pic32mx/4.5.1/../../../../pic32mx/lib\libe.a(_ldexp.o)
 .debug_str     0x0000354e        0x0 c:/program files (x86)/microchip/mplabc32/v2.02/bin/../lib/gcc/pic32mx/4.5.1/../../../../pic32mx/lib\libmchp_peripheral_32MX795F512L.a(soft_reset_lib.o)
 .debug_str     0x0000354e        0x0 c:/program files (x86)/microchip/mplabc32/v2.02/bin/../lib/gcc/pic32mx/4.5.1/../../../../pic32mx/lib\libmchp_peripheral_32MX795F512L.a(pcache.o)
 .debug_str     0x0000354e        0x0 c:/program files (x86)/microchip/mplabc32/v2.02/bin/../lib/gcc/pic32mx/4.5.1/../../../../pic32mx/lib\libmchp_peripheral_32MX795F512L.a(osc_config_lib.o)
 .debug_str     0x0000354e        0x0 c:/program files (x86)/microchip/mplabc32/v2.02/bin/../lib/gcc/pic32mx/4.5.1/../../../../pic32mx/lib\libmchp_peripheral_32MX795F512L.a(int_disable_interrupts_lib.o)
 .debug_str     0x0000354e        0x0 c:/program files (x86)/microchip/mplabc32/v2.02/bin/../lib/gcc/pic32mx/4.5.1/../../../../pic32mx/lib\libmchp_peripheral_32MX795F512L.a(int_restore_interrupts_lib.o)
 .debug_str     0x0000354e        0x0 c:/program files (x86)/microchip/mplabc32/v2.02/bin/../lib/gcc/pic32mx/4.5.1/../../../../pic32mx/lib\libmchp_peripheral_32MX795F512L.a(int_enable_mv_int_lib.o)
 .debug_str     0x0000354e        0x0 c:/program files (x86)/microchip/mplabc32/v2.02/bin/../lib/gcc/pic32mx/4.5.1/../../../../pic32mx/lib\libmchp_peripheral_32MX795F512L.a(int_tbl_lib.o)
 .debug_str     0x0000354e        0x0 c:/program files (x86)/microchip/mplabc32/v2.02/bin/../lib/gcc/pic32mx/4.5.1/../../../../pic32mx/lib\libmchp_peripheral_32MX795F512L.a(spi_chn_open_lib.o)
 .debug_str     0x0000354e        0x0 c:/program files (x86)/microchip/mplabc32/v2.02/bin/../lib/gcc/pic32mx/4.5.1/../../../../pic32mx/lib\libmchp_peripheral_32MX795F512L.a(spi_io_tbl_libp.o)
 .debug_str     0x0000354e        0x0 c:/program files (x86)/microchip/mplabc32/v2.02/bin/../lib/gcc/pic32mx/4.5.1/../../../../pic32mx/lib\libmchp_peripheral_32MX795F512L.a(spi_map_tbl_libp.o)
 .debug_str     0x0000354e        0x0 c:/program files (x86)/microchip/mplabc32/v2.02/bin/../lib/gcc/pic32mx/4.5.1/../../../../pic32mx/lib\libmchp_peripheral_32MX795F512L.a(nvm_erase_page_lib.o)
 .debug_str     0x0000354e        0x0 c:/program files (x86)/microchip/mplabc32/v2.02/bin/../lib/gcc/pic32mx/4.5.1/../../../../pic32mx/lib\libmchp_peripheral_32MX795F512L.a(nvm_operation_lib.o)
 .debug_str     0x0000354e        0x0 c:/program files (x86)/microchip/mplabc32/v2.02/bin/../lib/gcc/pic32mx/4.5.1/../../../../pic32mx/lib\libmchp_peripheral_32MX795F512L.a(nvm_write_row_lib.o)
 .debug_str     0x0000354e        0x0 c:/program files (x86)/microchip/mplabc32/v2.02/bin/../lib/gcc/pic32mx/4.5.1/../../../../pic32mx/lib\libmchp_peripheral_32MX795F512L.a(port_set_pins_digital_in_lib.o)
 .debug_str     0x0000354e        0x0 c:/program files (x86)/microchip/mplabc32/v2.02/bin/../lib/gcc/pic32mx/4.5.1/../../../../pic32mx/lib\libmchp_peripheral_32MX795F512L.a(port_set_pins_digital_out_lib.o)
 .debug_str     0x0000354e        0x0 c:/program files (x86)/microchip/mplabc32/v2.02/bin/../lib/gcc/pic32mx/4.5.1/../../../../pic32mx/lib\libmchp_peripheral_32MX795F512L.a(_ports_tbl_libp.o)
 .debug_str     0x0000354e        0x0 c:/program files (x86)/microchip/mplabc32/v2.02/bin/../lib/gcc/pic32mx/4.5.1/../../../../pic32mx/lib\libmchp_peripheral_32MX795F512L.a(uart_lib.o)
 .debug_str     0x0000354e        0x0 c:/program files (x86)/microchip/mplabc32/v2.02/bin/../lib/gcc/pic32mx/4.5.1/../../../../pic32mx/lib\libmchp_peripheral_32MX795F512L.a(int_enable_interrupts_lib.o)
 .debug_str     0x0000354e        0x0 c:/program files (x86)/microchip/mplabc32/v2.02/bin/../lib/gcc/pic32mx/4.5.1/../../../../pic32mx/lib\libc.a(errno.o)
 .debug_str     0x0000354e        0x0 c:/program files (x86)/microchip/mplabc32/v2.02/bin/../lib/gcc/pic32mx/4.5.1\libgcc.a(_lshrdi3.o)
 .debug_str     0x0000354e        0x0 c:/program files (x86)/microchip/mplabc32/v2.02/bin/../lib/gcc/pic32mx/4.5.1\libgcc.a(_ashldi3.o)
 .debug_str     0x0000354e        0x0 c:/program files (x86)/microchip/mplabc32/v2.02/bin/../lib/gcc/pic32mx/4.5.1\libgcc.a(_floatundisf.o)
 .debug_str     0x0000354e        0x0 c:/program files (x86)/microchip/mplabc32/v2.02/bin/../lib/gcc/pic32mx/4.5.1\libgcc.a(_udivdi3.o)
 .debug_str     0x0000354e        0x0 c:/program files (x86)/microchip/mplabc32/v2.02/bin/../lib/gcc/pic32mx/4.5.1\libgcc.a(_umoddi3.o)

.debug_loc      0x00000000     0x73c7
 *(.debug_loc)
 .debug_loc     0x00000000       0xcc build/default/production/src/ads7846.o
 .debug_loc     0x000000cc      0x3ec build/default/production/src/anatype.o
 .debug_loc     0x000004b8      0x16a build/default/production/src/clock.o
 .debug_loc     0x00000622      0x1b8 build/default/production/src/comsbusmaitre.o
 .debug_loc     0x000007da      0x2db build/default/production/src/config.o
 .debug_loc     0x00000ab5      0x2f4 build/default/production/src/echantillonnage.o
 .debug_loc     0x00000da9     0x1002 build/default/production/src/graphics.o
 .debug_loc     0x00001dab      0x41f build/default/production/src/gsm+.o
 .debug_loc     0x000021ca      0xec6 build/default/production/src/gsm.o
 .debug_loc     0x00003090       0x78 build/default/production/src/kalman.o
 .debug_loc     0x00003108      0x200 build/default/production/src/main.o
 .debug_loc     0x00003308      0xc75 build/default/production/src/mtrxsbus.o
 .debug_loc     0x00003f7d       0x14 build/default/production/src/relais.o
 .debug_loc     0x00003f91      0x1ba build/default/production/src/rtc.o
 .debug_loc     0x0000414b      0x174 build/default/production/src/s1d13700.o
 .debug_loc     0x000042bf      0x18d build/default/production/src/secteur.o
 .debug_loc     0x0000444c      0xe97 build/default/production/src/slvxsbus.o
 .debug_loc     0x000052e3       0xb1 build/default/production/src/timers.o
 .debug_loc     0x00005394      0x189 build/default/production/src/tor.o
 .debug_loc     0x0000551d      0x3c5 build/default/production/src/uart.o
 .debug_loc     0x000058e2      0x28e build/default/production/src/variables.o
 .debug_loc     0x00005b70      0x18f build/default/production/src/historique.o
 .debug_loc     0x00005cff       0x98 build/default/production/src/terminal.o
 .debug_loc     0x00005d97       0x68 c:/program files (x86)/microchip/mplabc32/v2.02/bin/../lib/gcc/pic32mx/4.5.1\libgcc.a(floatunsisf.o)
 .debug_loc     0x00005dff       0x5f c:/program files (x86)/microchip/mplabc32/v2.02/bin/../lib/gcc/pic32mx/4.5.1\libgcc.a(_lshrdi3.o)
 .debug_loc     0x00005e5e       0x3c c:/program files (x86)/microchip/mplabc32/v2.02/bin/../lib/gcc/pic32mx/4.5.1\libgcc.a(_ashldi3.o)
 .debug_loc     0x00005e9a       0xc9 c:/program files (x86)/microchip/mplabc32/v2.02/bin/../lib/gcc/pic32mx/4.5.1\libgcc.a(_floatundisf.o)
 .debug_loc     0x00005f63      0xa47 c:/program files (x86)/microchip/mplabc32/v2.02/bin/../lib/gcc/pic32mx/4.5.1\libgcc.a(_udivdi3.o)
 .debug_loc     0x000069aa      0xa1d c:/program files (x86)/microchip/mplabc32/v2.02/bin/../lib/gcc/pic32mx/4.5.1\libgcc.a(_umoddi3.o)

.debug_macinfo
 *(.debug_macinfo)

.debug_weaknames
 *(.debug_weaknames)

.debug_funcnames
 *(.debug_funcnames)

.debug_typenames
 *(.debug_typenames)

.debug_varnames
 *(.debug_varnames)

.debug_pubtypes
                0x00000000     0x22f7
 *(.debug_pubtypes)
 .debug_pubtypes
                0x00000000      0x15e build/default/production/src/ads7846.o
 .debug_pubtypes
                0x0000015e       0x24 build/default/production/src/anatype.o
 .debug_pubtypes
                0x00000182      0x15b build/default/production/src/can.o
 .debug_pubtypes
                0x000002dd      0x10d build/default/production/src/clock.o
 .debug_pubtypes
                0x000003ea      0x12c build/default/production/src/comsbusmaitre.o
 .debug_pubtypes
                0x00000516       0xe7 build/default/production/src/config.o
 .debug_pubtypes
                0x000005fd       0x22 build/default/production/src/echantillonnage.o
 .debug_pubtypes
                0x0000061f       0xf7 build/default/production/src/exceptions.o
 .debug_pubtypes
                0x00000716      0x19b build/default/production/src/graphics.o
 .debug_pubtypes
                0x000008b1      0x118 build/default/production/src/gsm+.o
 .debug_pubtypes
                0x000009c9      0x2aa build/default/production/src/gsm.o
 .debug_pubtypes
                0x00000c73      0x11a build/default/production/src/image.o
 .debug_pubtypes
                0x00000d8d      0x1e5 build/default/production/src/main.o
 .debug_pubtypes
                0x00000f72      0x126 build/default/production/src/mtrxsbus.o
 .debug_pubtypes
                0x00001098       0xf9 build/default/production/src/pwm.o
 .debug_pubtypes
                0x00001191       0xe7 build/default/production/src/relais.o
 .debug_pubtypes
                0x00001278      0x180 build/default/production/src/rtc.o
 .debug_pubtypes
                0x000013f8      0x165 build/default/production/src/s1d13700.o
 .debug_pubtypes
                0x0000155d      0x11c build/default/production/src/secteur.o
 .debug_pubtypes
                0x00001679      0x122 build/default/production/src/slvxsbus.o
 .debug_pubtypes
                0x0000179b      0x11a build/default/production/src/timers.o
 .debug_pubtypes
                0x000018b5      0x241 build/default/production/src/tor.o
 .debug_pubtypes
                0x00001af6      0x1c1 build/default/production/src/uart.o
 .debug_pubtypes
                0x00001cb7      0x11b build/default/production/src/variables.o
 .debug_pubtypes
                0x00001dd2       0xf9 build/default/production/src/historique.o
 .debug_pubtypes
                0x00001ecb      0x14e build/default/production/src/terminal.o
 .debug_pubtypes
                0x00002019       0xf4 build/default/production/src/eauglycolee.o
 .debug_pubtypes
                0x0000210d       0x34 c:/program files (x86)/microchip/mplabc32/v2.02/bin/../lib/gcc/pic32mx/4.5.1\libgcc.a(floatunsisf.o)
 .debug_pubtypes
                0x00002141       0x62 c:/program files (x86)/microchip/mplabc32/v2.02/bin/../lib/gcc/pic32mx/4.5.1\libgcc.a(_lshrdi3.o)
 .debug_pubtypes
                0x000021a3       0x62 c:/program files (x86)/microchip/mplabc32/v2.02/bin/../lib/gcc/pic32mx/4.5.1\libgcc.a(_ashldi3.o)
 .debug_pubtypes
                0x00002205       0x40 c:/program files (x86)/microchip/mplabc32/v2.02/bin/../lib/gcc/pic32mx/4.5.1\libgcc.a(_floatundisf.o)
 .debug_pubtypes
                0x00002245       0x59 c:/program files (x86)/microchip/mplabc32/v2.02/bin/../lib/gcc/pic32mx/4.5.1\libgcc.a(_udivdi3.o)
 .debug_pubtypes
                0x0000229e       0x59 c:/program files (x86)/microchip/mplabc32/v2.02/bin/../lib/gcc/pic32mx/4.5.1\libgcc.a(_umoddi3.o)

.debug_ranges   0x00000000      0x618
 *(.debug_ranges)
 .debug_ranges  0x00000000       0x30 build/default/production/src/gsm+.o
 .debug_ranges  0x00000030       0x30 build/default/production/src/slvxsbus.o
 .debug_ranges  0x00000060       0x10 c:/program files (x86)/microchip/mplabc32/v2.02/bin/../lib/gcc/pic32mx/4.5.1/../../../../pic32mx/lib\libc.a(atoi.o)
 .debug_ranges  0x00000070       0x10 c:/program files (x86)/microchip/mplabc32/v2.02/bin/../lib/gcc/pic32mx/4.5.1/../../../../pic32mx/lib\libc.a(atol.o)
 .debug_ranges  0x00000080       0x28 c:/program files (x86)/microchip/mplabc32/v2.02/bin/../lib/gcc/pic32mx/4.5.1/../../../../pic32mx/lib\libc.a(ctime.o)
 .debug_ranges  0x000000a8       0x90 c:/program files (x86)/microchip/mplabc32/v2.02/bin/../lib/gcc/pic32mx/4.5.1/../../../../pic32mx/lib\libc.a(ctypef.o)
 .debug_ranges  0x00000138       0x18 c:/program files (x86)/microchip/mplabc32/v2.02/bin/../lib/gcc/pic32mx/4.5.1/../../../../pic32mx/lib\libc.a(mktime.o)
 .debug_ranges  0x00000150       0x10 c:/program files (x86)/microchip/mplabc32/v2.02/bin/../lib/gcc/pic32mx/4.5.1/../../../../pic32mx/lib\libc.a(strcat.o)
 .debug_ranges  0x00000160       0x10 c:/program files (x86)/microchip/mplabc32/v2.02/bin/../lib/gcc/pic32mx/4.5.1/../../../../pic32mx/lib\libc.a(strchr.o)
 .debug_ranges  0x00000170       0x10 c:/program files (x86)/microchip/mplabc32/v2.02/bin/../lib/gcc/pic32mx/4.5.1/../../../../pic32mx/lib\libc.a(strncat.o)
 .debug_ranges  0x00000180       0x10 c:/program files (x86)/microchip/mplabc32/v2.02/bin/../lib/gcc/pic32mx/4.5.1/../../../../pic32mx/lib\libc.a(strncmp.o)
 .debug_ranges  0x00000190       0x10 c:/program files (x86)/microchip/mplabc32/v2.02/bin/../lib/gcc/pic32mx/4.5.1/../../../../pic32mx/lib\libc.a(strncpy.o)
 .debug_ranges  0x000001a0       0x10 c:/program files (x86)/microchip/mplabc32/v2.02/bin/../lib/gcc/pic32mx/4.5.1/../../../../pic32mx/lib\libc.a(strstr.o)
 .debug_ranges  0x000001b0       0x10 c:/program files (x86)/microchip/mplabc32/v2.02/bin/../lib/gcc/pic32mx/4.5.1/../../../../pic32mx/lib\libc.a(strtok.o)
 .debug_ranges  0x000001c0       0x10 c:/program files (x86)/microchip/mplabc32/v2.02/bin/../lib/gcc/pic32mx/4.5.1/../../../../pic32mx/lib\libc.a(xtoi.o)
 .debug_ranges  0x000001d0       0x10 c:/program files (x86)/microchip/mplabc32/v2.02/bin/../lib/gcc/pic32mx/4.5.1/../../../../pic32mx/lib\libc.a(atof.o)
 .debug_ranges  0x000001e0       0x10 c:/program files (x86)/microchip/mplabc32/v2.02/bin/../lib/gcc/pic32mx/4.5.1/../../../../pic32mx/lib\libc.a(sprintf_cdfFnopsuxX.eo)
 .debug_ranges  0x000001f0       0x10 c:/program files (x86)/microchip/mplabc32/v2.02/bin/../lib/gcc/pic32mx/4.5.1/../../../../pic32mx/lib\libc.a(default-bootstrap-exception-handler.o)
 .debug_ranges  0x00000200       0x10 c:/program files (x86)/microchip/mplabc32/v2.02/bin/../lib/gcc/pic32mx/4.5.1/../../../../pic32mx/lib\libc.a(default-on-reset.o)
 .debug_ranges  0x00000210       0x10 c:/program files (x86)/microchip/mplabc32/v2.02/bin/../lib/gcc/pic32mx/4.5.1/../../../../pic32mx/lib\libc.a(default-on-bootstrap.o)
 .debug_ranges  0x00000220       0x10 c:/program files (x86)/microchip/mplabc32/v2.02/bin/../lib/gcc/pic32mx/4.5.1/../../../../pic32mx/lib\libc.a(strcspn.o)
 .debug_ranges  0x00000230       0x10 c:/program files (x86)/microchip/mplabc32/v2.02/bin/../lib/gcc/pic32mx/4.5.1/../../../../pic32mx/lib\libc.a(strspn.o)
 .debug_ranges  0x00000240       0x18 c:/program files (x86)/microchip/mplabc32/v2.02/bin/../lib/gcc/pic32mx/4.5.1/../../../../pic32mx/lib\libc.a(strtod.o)
 .debug_ranges  0x00000258       0x18 c:/program files (x86)/microchip/mplabc32/v2.02/bin/../lib/gcc/pic32mx/4.5.1/../../../../pic32mx/lib\libc.a(doprnt_cdfFnopsuxX.eo)
 .debug_ranges  0x00000270       0x10 c:/program files (x86)/microchip/mplabc32/v2.02/bin/../lib/gcc/pic32mx/4.5.1/../../../../pic32mx/lib\libc.a(_fputc_simple.o)
 .debug_ranges  0x00000280       0x10 c:/program files (x86)/microchip/mplabc32/v2.02/bin/../lib/gcc/pic32mx/4.5.1/../../../../pic32mx/lib\libc.a(write.o)
 .debug_ranges  0x00000290       0x10 c:/program files (x86)/microchip/mplabc32/v2.02/bin/../lib/gcc/pic32mx/4.5.1/../../../../pic32mx/lib\libc.a(_flsbuf_simple.o)
 .debug_ranges  0x000002a0       0x10 c:/program files (x86)/microchip/mplabc32/v2.02/bin/../lib/gcc/pic32mx/4.5.1/../../../../pic32mx/lib\libc.a(_mon_putc.o)
 .debug_ranges  0x000002b0       0x10 c:/program files (x86)/microchip/mplabc32/v2.02/bin/../lib/gcc/pic32mx/4.5.1/../../../../pic32mx/lib\libm.a(w_sqrtf.o)
 .debug_ranges  0x000002c0       0x10 c:/program files (x86)/microchip/mplabc32/v2.02/bin/../lib/gcc/pic32mx/4.5.1/../../../../pic32mx/lib\libe.a(_floatdisf.o)
 .debug_ranges  0x000002d0       0x10 c:/program files (x86)/microchip/mplabc32/v2.02/bin/../lib/gcc/pic32mx/4.5.1/../../../../pic32mx/lib\libe.a(_strtod.o)
 .debug_ranges  0x000002e0       0x10 c:/program files (x86)/microchip/mplabc32/v2.02/bin/../lib/gcc/pic32mx/4.5.1/../../../../pic32mx/lib\libe.a(_ldexp.o)
 .debug_ranges  0x000002f0       0x10 c:/program files (x86)/microchip/mplabc32/v2.02/bin/../lib/gcc/pic32mx/4.5.1/../../../../pic32mx/lib\libmchp_peripheral_32MX795F512L.a(soft_reset_lib.o)
 .debug_ranges  0x00000300       0x18 c:/program files (x86)/microchip/mplabc32/v2.02/bin/../lib/gcc/pic32mx/4.5.1/../../../../pic32mx/lib\libmchp_peripheral_32MX795F512L.a(pcache.o)
 .debug_ranges  0x00000318       0x10 c:/program files (x86)/microchip/mplabc32/v2.02/bin/../lib/gcc/pic32mx/4.5.1/../../../../pic32mx/lib\libmchp_peripheral_32MX795F512L.a(osc_config_lib.o)
 .debug_ranges  0x00000328       0x10 c:/program files (x86)/microchip/mplabc32/v2.02/bin/../lib/gcc/pic32mx/4.5.1/../../../../pic32mx/lib\libmchp_peripheral_32MX795F512L.a(int_disable_interrupts_lib.o)
 .debug_ranges  0x00000338       0x10 c:/program files (x86)/microchip/mplabc32/v2.02/bin/../lib/gcc/pic32mx/4.5.1/../../../../pic32mx/lib\libmchp_peripheral_32MX795F512L.a(int_restore_interrupts_lib.o)
 .debug_ranges  0x00000348       0x10 c:/program files (x86)/microchip/mplabc32/v2.02/bin/../lib/gcc/pic32mx/4.5.1/../../../../pic32mx/lib\libmchp_peripheral_32MX795F512L.a(int_enable_mv_int_lib.o)
 .debug_ranges  0x00000358       0x50 c:/program files (x86)/microchip/mplabc32/v2.02/bin/../lib/gcc/pic32mx/4.5.1/../../../../pic32mx/lib\libmchp_peripheral_32MX795F512L.a(int_tbl_lib.o)
 .debug_ranges  0x000003a8       0x10 c:/program files (x86)/microchip/mplabc32/v2.02/bin/../lib/gcc/pic32mx/4.5.1/../../../../pic32mx/lib\libmchp_peripheral_32MX795F512L.a(spi_chn_open_lib.o)
 .debug_ranges  0x000003b8       0x10 c:/program files (x86)/microchip/mplabc32/v2.02/bin/../lib/gcc/pic32mx/4.5.1/../../../../pic32mx/lib\libmchp_peripheral_32MX795F512L.a(nvm_erase_page_lib.o)
 .debug_ranges  0x000003c8       0x10 c:/program files (x86)/microchip/mplabc32/v2.02/bin/../lib/gcc/pic32mx/4.5.1/../../../../pic32mx/lib\libmchp_peripheral_32MX795F512L.a(nvm_operation_lib.o)
 .debug_ranges  0x000003d8       0x10 c:/program files (x86)/microchip/mplabc32/v2.02/bin/../lib/gcc/pic32mx/4.5.1/../../../../pic32mx/lib\libmchp_peripheral_32MX795F512L.a(nvm_write_row_lib.o)
 .debug_ranges  0x000003e8       0x10 c:/program files (x86)/microchip/mplabc32/v2.02/bin/../lib/gcc/pic32mx/4.5.1/../../../../pic32mx/lib\libmchp_peripheral_32MX795F512L.a(port_set_pins_digital_in_lib.o)
 .debug_ranges  0x000003f8       0x10 c:/program files (x86)/microchip/mplabc32/v2.02/bin/../lib/gcc/pic32mx/4.5.1/../../../../pic32mx/lib\libmchp_peripheral_32MX795F512L.a(port_set_pins_digital_out_lib.o)
 .debug_ranges  0x00000408       0x48 c:/program files (x86)/microchip/mplabc32/v2.02/bin/../lib/gcc/pic32mx/4.5.1/../../../../pic32mx/lib\libmchp_peripheral_32MX795F512L.a(uart_lib.o)
 .debug_ranges  0x00000450       0x10 c:/program files (x86)/microchip/mplabc32/v2.02/bin/../lib/gcc/pic32mx/4.5.1/../../../../pic32mx/lib\libmchp_peripheral_32MX795F512L.a(int_enable_interrupts_lib.o)
 .debug_ranges  0x00000460       0xc0 c:/program files (x86)/microchip/mplabc32/v2.02/bin/../lib/gcc/pic32mx/4.5.1\libgcc.a(_udivdi3.o)
 .debug_ranges  0x00000520       0xf8 c:/program files (x86)/microchip/mplabc32/v2.02/bin/../lib/gcc/pic32mx/4.5.1\libgcc.a(_umoddi3.o)

.gnu.attributes
                0x00000000       0x10
 *(.gnu.attributes)
 .gnu.attributes
                0x00000000       0x10 build/default/production/src/ads7846.o
 .gnu.attributes
                0x00000010       0x10 build/default/production/src/anatype.o
 .gnu.attributes
                0x00000020       0x10 build/default/production/src/can.o
 .gnu.attributes
                0x00000030       0x10 build/default/production/src/clock.o
 .gnu.attributes
                0x00000040       0x10 build/default/production/src/comsbusmaitre.o
 .gnu.attributes
                0x00000050       0x10 build/default/production/src/config.o
 .gnu.attributes
                0x00000060       0x10 build/default/production/src/echantillonnage.o
 .gnu.attributes
                0x00000070       0x10 build/default/production/src/exceptions.o
 .gnu.attributes
                0x00000080       0x10 build/default/production/src/font.o
 .gnu.attributes
                0x00000090       0x10 build/default/production/src/graphics.o
 .gnu.attributes
                0x000000a0       0x10 build/default/production/src/gsm+.o
 .gnu.attributes
                0x000000b0       0x10 build/default/production/src/gsm.o
 .gnu.attributes
                0x000000c0       0x10 build/default/production/src/image.o
 .gnu.attributes
                0x000000d0       0x10 build/default/production/src/kalman.o
 .gnu.attributes
                0x000000e0       0x10 build/default/production/src/main.o
 .gnu.attributes
                0x000000f0       0x10 build/default/production/src/mtrxsbus.o
 .gnu.attributes
                0x00000100       0x10 build/default/production/src/pwm.o
 .gnu.attributes
                0x00000110       0x10 build/default/production/src/relais.o
 .gnu.attributes
                0x00000120       0x10 build/default/production/src/rtc.o
 .gnu.attributes
                0x00000130       0x10 build/default/production/src/s1d13700.o
 .gnu.attributes
                0x00000140       0x10 build/default/production/src/secteur.o
 .gnu.attributes
                0x00000150       0x10 build/default/production/src/slvxsbus.o
 .gnu.attributes
                0x00000160       0x10 build/default/production/src/timers.o
 .gnu.attributes
                0x00000170       0x10 build/default/production/src/tor.o
 .gnu.attributes
                0x00000180       0x10 build/default/production/src/uart.o
 .gnu.attributes
                0x00000190       0x10 build/default/production/src/variables.o
 .gnu.attributes
                0x000001a0       0x10 build/default/production/src/historique.o
 .gnu.attributes
                0x000001b0       0x10 build/default/production/src/terminal.o
 .gnu.attributes
                0x000001c0       0x10 build/default/production/src/eauglycolee.o
 .gnu.attributes
                0x000001d0       0x10 c:/program files (x86)/microchip/mplabc32/v2.02/bin/../lib/gcc/pic32mx/4.5.1\libgcc.a(floatunsisf.o)
 .gnu.attributes
                0x000001e0       0x10 c:/program files (x86)/microchip/mplabc32/v2.02/bin/../lib/gcc/pic32mx/4.5.1/../../../../pic32mx/lib\libc.a(atoi.o)
 .gnu.attributes
                0x000001f0       0x10 c:/program files (x86)/microchip/mplabc32/v2.02/bin/../lib/gcc/pic32mx/4.5.1/../../../../pic32mx/lib\libc.a(atol.o)
 .gnu.attributes
                0x00000200       0x10 c:/program files (x86)/microchip/mplabc32/v2.02/bin/../lib/gcc/pic32mx/4.5.1/../../../../pic32mx/lib\libc.a(ctime.o)
 .gnu.attributes
                0x00000210       0x10 c:/program files (x86)/microchip/mplabc32/v2.02/bin/../lib/gcc/pic32mx/4.5.1/../../../../pic32mx/lib\libc.a(ctype.o)
 .gnu.attributes
                0x00000220       0x10 c:/program files (x86)/microchip/mplabc32/v2.02/bin/../lib/gcc/pic32mx/4.5.1/../../../../pic32mx/lib\libc.a(ctypef.o)
 .gnu.attributes
                0x00000230       0x10 c:/program files (x86)/microchip/mplabc32/v2.02/bin/../lib/gcc/pic32mx/4.5.1/../../../../pic32mx/lib\libc.a(mktime.o)
 .gnu.attributes
                0x00000240       0x10 c:/program files (x86)/microchip/mplabc32/v2.02/bin/../lib/gcc/pic32mx/4.5.1/../../../../pic32mx/lib\libc.a(strcat.o)
 .gnu.attributes
                0x00000250       0x10 c:/program files (x86)/microchip/mplabc32/v2.02/bin/../lib/gcc/pic32mx/4.5.1/../../../../pic32mx/lib\libc.a(strchr.o)
 .gnu.attributes
                0x00000260       0x10 c:/program files (x86)/microchip/mplabc32/v2.02/bin/../lib/gcc/pic32mx/4.5.1/../../../../pic32mx/lib\libc.a(strncat.o)
 .gnu.attributes
                0x00000270       0x10 c:/program files (x86)/microchip/mplabc32/v2.02/bin/../lib/gcc/pic32mx/4.5.1/../../../../pic32mx/lib\libc.a(strncmp.o)
 .gnu.attributes
                0x00000280       0x10 c:/program files (x86)/microchip/mplabc32/v2.02/bin/../lib/gcc/pic32mx/4.5.1/../../../../pic32mx/lib\libc.a(strncpy.o)
 .gnu.attributes
                0x00000290       0x10 c:/program files (x86)/microchip/mplabc32/v2.02/bin/../lib/gcc/pic32mx/4.5.1/../../../../pic32mx/lib\libc.a(strstr.o)
 .gnu.attributes
                0x000002a0       0x10 c:/program files (x86)/microchip/mplabc32/v2.02/bin/../lib/gcc/pic32mx/4.5.1/../../../../pic32mx/lib\libc.a(strtok.o)
 .gnu.attributes
                0x000002b0       0x10 c:/program files (x86)/microchip/mplabc32/v2.02/bin/../lib/gcc/pic32mx/4.5.1/../../../../pic32mx/lib\libc.a(xtoi.o)
 .gnu.attributes
                0x000002c0       0x10 c:/program files (x86)/microchip/mplabc32/v2.02/bin/../lib/gcc/pic32mx/4.5.1/../../../../pic32mx/lib\libc.a(atof.o)
 .gnu.attributes
                0x000002d0       0x10 c:/program files (x86)/microchip/mplabc32/v2.02/bin/../lib/gcc/pic32mx/4.5.1/../../../../pic32mx/lib\libc.a(sprintf_cdfFnopsuxX.eo)
 .gnu.attributes
                0x000002e0       0x10 c:/program files (x86)/microchip/mplabc32/v2.02/bin/../lib/gcc/pic32mx/4.5.1/../../../../pic32mx/lib\libc.a(default-bootstrap-exception-handler.o)
 .gnu.attributes
                0x000002f0       0x10 c:/program files (x86)/microchip/mplabc32/v2.02/bin/../lib/gcc/pic32mx/4.5.1/../../../../pic32mx/lib\libc.a(default-on-reset.o)
 .gnu.attributes
                0x00000300       0x10 c:/program files (x86)/microchip/mplabc32/v2.02/bin/../lib/gcc/pic32mx/4.5.1/../../../../pic32mx/lib\libc.a(default-on-bootstrap.o)
 .gnu.attributes
                0x00000310       0x10 c:/program files (x86)/microchip/mplabc32/v2.02/bin/../lib/gcc/pic32mx/4.5.1/../../../../pic32mx/lib\libc.a(strcspn.o)
 .gnu.attributes
                0x00000320       0x10 c:/program files (x86)/microchip/mplabc32/v2.02/bin/../lib/gcc/pic32mx/4.5.1/../../../../pic32mx/lib\libc.a(strspn.o)
 .gnu.attributes
                0x00000330       0x10 c:/program files (x86)/microchip/mplabc32/v2.02/bin/../lib/gcc/pic32mx/4.5.1/../../../../pic32mx/lib\libc.a(strtod.o)
 .gnu.attributes
                0x00000340       0x10 c:/program files (x86)/microchip/mplabc32/v2.02/bin/../lib/gcc/pic32mx/4.5.1/../../../../pic32mx/lib\libc.a(doprnt_cdfFnopsuxX.eo)
 .gnu.attributes
                0x00000350       0x10 c:/program files (x86)/microchip/mplabc32/v2.02/bin/../lib/gcc/pic32mx/4.5.1/../../../../pic32mx/lib\libc.a(_fputc_simple.o)
 .gnu.attributes
                0x00000360       0x10 c:/program files (x86)/microchip/mplabc32/v2.02/bin/../lib/gcc/pic32mx/4.5.1/../../../../pic32mx/lib\libc.a(powers.o)
 .gnu.attributes
                0x00000370       0x10 c:/program files (x86)/microchip/mplabc32/v2.02/bin/../lib/gcc/pic32mx/4.5.1/../../../../pic32mx/lib\libc.a(write.o)
 .gnu.attributes
                0x00000380       0x10 c:/program files (x86)/microchip/mplabc32/v2.02/bin/../lib/gcc/pic32mx/4.5.1/../../../../pic32mx/lib\libc.a(_iob.o)
 .gnu.attributes
                0x00000390       0x10 c:/program files (x86)/microchip/mplabc32/v2.02/bin/../lib/gcc/pic32mx/4.5.1/../../../../pic32mx/lib\libc.a(_flsbuf_simple.o)
 .gnu.attributes
                0x000003a0       0x10 c:/program files (x86)/microchip/mplabc32/v2.02/bin/../lib/gcc/pic32mx/4.5.1/../../../../pic32mx/lib\libc.a(_mon_putc.o)
 .gnu.attributes
                0x000003b0       0x10 c:/program files (x86)/microchip/mplabc32/v2.02/bin/../lib/gcc/pic32mx/4.5.1/../../../../pic32mx/lib\libc.a(c32_uart.o)
 .gnu.attributes
                0x000003c0       0x10 c:/program files (x86)/microchip/mplabc32/v2.02/bin/../lib/gcc/pic32mx/4.5.1/../../../../pic32mx/lib\libm.a(w_sqrtf.o)
 .gnu.attributes
                0x000003d0       0x10 c:/program files (x86)/microchip/mplabc32/v2.02/bin/../lib/gcc/pic32mx/4.5.1/../../../../pic32mx/lib\libm.a(s_lib_ver.o)
 .gnu.attributes
                0x000003e0       0x10 c:/program files (x86)/microchip/mplabc32/v2.02/bin/../lib/gcc/pic32mx/4.5.1/../../../../pic32mx/lib\libe.a(_floatdisf.o)
 .gnu.attributes
                0x000003f0       0x10 c:/program files (x86)/microchip/mplabc32/v2.02/bin/../lib/gcc/pic32mx/4.5.1/../../../../pic32mx/lib\libe.a(_strtod.o)
 .gnu.attributes
                0x00000400       0x10 c:/program files (x86)/microchip/mplabc32/v2.02/bin/../lib/gcc/pic32mx/4.5.1/../../../../pic32mx/lib\libe.a(_ldexp.o)
 .gnu.attributes
                0x00000410       0x10 c:/program files (x86)/microchip/mplabc32/v2.02/bin/../lib/gcc/pic32mx/4.5.1/../../../../pic32mx/lib\libmchp_peripheral_32MX795F512L.a(soft_reset_lib.o)
 .gnu.attributes
                0x00000420       0x10 c:/program files (x86)/microchip/mplabc32/v2.02/bin/../lib/gcc/pic32mx/4.5.1/../../../../pic32mx/lib\libmchp_peripheral_32MX795F512L.a(pcache.o)
 .gnu.attributes
                0x00000430       0x10 c:/program files (x86)/microchip/mplabc32/v2.02/bin/../lib/gcc/pic32mx/4.5.1/../../../../pic32mx/lib\libmchp_peripheral_32MX795F512L.a(osc_config_lib.o)
 .gnu.attributes
                0x00000440       0x10 c:/program files (x86)/microchip/mplabc32/v2.02/bin/../lib/gcc/pic32mx/4.5.1/../../../../pic32mx/lib\libmchp_peripheral_32MX795F512L.a(int_disable_interrupts_lib.o)
 .gnu.attributes
                0x00000450       0x10 c:/program files (x86)/microchip/mplabc32/v2.02/bin/../lib/gcc/pic32mx/4.5.1/../../../../pic32mx/lib\libmchp_peripheral_32MX795F512L.a(int_restore_interrupts_lib.o)
 .gnu.attributes
                0x00000460       0x10 c:/program files (x86)/microchip/mplabc32/v2.02/bin/../lib/gcc/pic32mx/4.5.1/../../../../pic32mx/lib\libmchp_peripheral_32MX795F512L.a(int_enable_mv_int_lib.o)
 .gnu.attributes
                0x00000470       0x10 c:/program files (x86)/microchip/mplabc32/v2.02/bin/../lib/gcc/pic32mx/4.5.1/../../../../pic32mx/lib\libmchp_peripheral_32MX795F512L.a(int_tbl_lib.o)
 .gnu.attributes
                0x00000480       0x10 c:/program files (x86)/microchip/mplabc32/v2.02/bin/../lib/gcc/pic32mx/4.5.1/../../../../pic32mx/lib\libmchp_peripheral_32MX795F512L.a(spi_chn_open_lib.o)
 .gnu.attributes
                0x00000490       0x10 c:/program files (x86)/microchip/mplabc32/v2.02/bin/../lib/gcc/pic32mx/4.5.1/../../../../pic32mx/lib\libmchp_peripheral_32MX795F512L.a(spi_io_tbl_libp.o)
 .gnu.attributes
                0x000004a0       0x10 c:/program files (x86)/microchip/mplabc32/v2.02/bin/../lib/gcc/pic32mx/4.5.1/../../../../pic32mx/lib\libmchp_peripheral_32MX795F512L.a(spi_map_tbl_libp.o)
 .gnu.attributes
                0x000004b0       0x10 c:/program files (x86)/microchip/mplabc32/v2.02/bin/../lib/gcc/pic32mx/4.5.1/../../../../pic32mx/lib\libmchp_peripheral_32MX795F512L.a(nvm_erase_page_lib.o)
 .gnu.attributes
                0x000004c0       0x10 c:/program files (x86)/microchip/mplabc32/v2.02/bin/../lib/gcc/pic32mx/4.5.1/../../../../pic32mx/lib\libmchp_peripheral_32MX795F512L.a(nvm_operation_lib.o)
 .gnu.attributes
                0x000004d0       0x10 c:/program files (x86)/microchip/mplabc32/v2.02/bin/../lib/gcc/pic32mx/4.5.1/../../../../pic32mx/lib\libmchp_peripheral_32MX795F512L.a(nvm_write_row_lib.o)
 .gnu.attributes
                0x000004e0       0x10 c:/program files (x86)/microchip/mplabc32/v2.02/bin/../lib/gcc/pic32mx/4.5.1/../../../../pic32mx/lib\libmchp_peripheral_32MX795F512L.a(port_set_pins_digital_in_lib.o)
 .gnu.attributes
                0x000004f0       0x10 c:/program files (x86)/microchip/mplabc32/v2.02/bin/../lib/gcc/pic32mx/4.5.1/../../../../pic32mx/lib\libmchp_peripheral_32MX795F512L.a(port_set_pins_digital_out_lib.o)
 .gnu.attributes
                0x00000500       0x10 c:/program files (x86)/microchip/mplabc32/v2.02/bin/../lib/gcc/pic32mx/4.5.1/../../../../pic32mx/lib\libmchp_peripheral_32MX795F512L.a(_ports_tbl_libp.o)
 .gnu.attributes
                0x00000510       0x10 c:/program files (x86)/microchip/mplabc32/v2.02/bin/../lib/gcc/pic32mx/4.5.1/../../../../pic32mx/lib\libmchp_peripheral_32MX795F512L.a(uart_lib.o)
 .gnu.attributes
                0x00000520       0x10 c:/program files (x86)/microchip/mplabc32/v2.02/bin/../lib/gcc/pic32mx/4.5.1/../../../../pic32mx/lib\libmchp_peripheral_32MX795F512L.a(int_enable_interrupts_lib.o)
 .gnu.attributes
                0x00000530       0x10 c:/program files (x86)/microchip/mplabc32/v2.02/bin/../lib/gcc/pic32mx/4.5.1/../../../../pic32mx/lib\libc.a(errno.o)
 .gnu.attributes
                0x00000540       0x10 c:/program files (x86)/microchip/mplabc32/v2.02/bin/../lib/gcc/pic32mx/4.5.1\libgcc.a(_lshrdi3.o)
 .gnu.attributes
                0x00000550       0x10 c:/program files (x86)/microchip/mplabc32/v2.02/bin/../lib/gcc/pic32mx/4.5.1\libgcc.a(_ashldi3.o)
 .gnu.attributes
                0x00000560       0x10 c:/program files (x86)/microchip/mplabc32/v2.02/bin/../lib/gcc/pic32mx/4.5.1\libgcc.a(_floatundisf.o)
 .gnu.attributes
                0x00000570       0x10 c:/program files (x86)/microchip/mplabc32/v2.02/bin/../lib/gcc/pic32mx/4.5.1\libgcc.a(_udivdi3.o)
 .gnu.attributes
                0x00000580       0x10 c:/program files (x86)/microchip/mplabc32/v2.02/bin/../lib/gcc/pic32mx/4.5.1\libgcc.a(_umoddi3.o)
OUTPUT(dist/default/production/src.production.elf elf32-tradlittlemips)
LOAD stack
LOAD data_init

.stack          0xa0012378      0x400
 .stack         0xa0012378      0x400 stack

.bss            0xa0010d1c     0x1400
 .bss           0xa0010d1c     0x1400 build/default/production/src/uart.o
                0xa0010d1c                uart1_Rx_Buffer
                0xa001111c                uart2_Rx_Buffer
                0xa001151c                uart3_Rx_Buffer
                0xa001191c                uart4_Rx_Buffer
                0xa0011d1c                uart5_Rx_Buffer

.data           0xa001211c      0x15c
 .data          0xa001211c       0xa0 c:/program files (x86)/microchip/mplabc32/v2.02/bin/../lib/gcc/pic32mx/4.5.1/../../../../pic32mx/lib\libc.a(_iob.o)
                0xa001211c                _iob
 .data          0xa00121bc       0x70 build/default/production/src/gsm+.o
                0xa00121bc                gsmplus_pCmdIOAna
 .data          0xa001222c       0x4c build/default/production/src/gsm.o
                0xa001222c                gsm_pListeConfig1
                0xa0012258                gsm_pListeConfig2

.bss            0xa0012278       0x80
 .bss           0xa0012278       0x40 c:/program files (x86)/microchip/mplabc32/v2.02/bin/../lib/gcc/pic32mx/4.5.1/../../../../pic32mx/lib\libc.a(ctime.o)
 .bss           0xa00122b8       0x40 c:/program files (x86)/microchip/mplabc32/v2.02/bin/../lib/gcc/pic32mx/4.5.1/../../../../pic32mx/lib\libc.a(_iob.o)
                0xa00122b8                _sibuf
                0xa00122d8                _sobuf

.data           0xa00122f8       0x50
 .data          0xa00122f8       0x30 build/default/production/src/clock.o
                0xa00122f8                months
 .data          0xa0012328       0x20 build/default/production/src/can.o
                0xa0012328                MuxOrder

.pbss           0xa0012348        0xc
 .pbss          0xa0012348        0xc build/default/production/src/exceptions.o
                0xa0012348                _excep_code
                0xa001234c                _excep_addr
                0xa0012350                _cpt_reset

.bss            0xa0012354        0x4
 .bss           0xa0012354        0x4 c:/program files (x86)/microchip/mplabc32/v2.02/bin/../lib/gcc/pic32mx/4.5.1/../../../../pic32mx/lib\libc.a(strtok.o)

.data.math_errhandling_flag
                0xa0012358        0x4
 .data.math_errhandling_flag
                0xa0012358        0x4 c:/program files (x86)/microchip/mplabc32/v2.02/bin/../lib/gcc/pic32mx/4.5.1/../../../../pic32mx/lib\libm.a(s_lib_ver.o)
                0xa0012358                math_errhandling

.bss%z1         0x00000000        0x0
 .bss           0x00000000        0x0 c:/program files (x86)/microchip/mplabc32/v2.02/bin/../lib/gcc/pic32mx/4.5.1/../../../../pic32mx/lib/./proc/32MX795F512L\processor.o

.data%z2        0x00000000        0x0
 .data          0x00000000        0x0 c:/program files (x86)/microchip/mplabc32/v2.02/bin/../lib/gcc/pic32mx/4.5.1/../../../../pic32mx/lib/./proc/32MX795F512L\processor.o

.mdebug.abi32%z3
                0x00000000        0x0
 .mdebug.abi32  0x00000000        0x0 c:/program files (x86)/microchip/mplabc32/v2.02/bin/../lib/gcc/pic32mx/4.5.1\libgcc.a(_umoddi3.o)

.bss%z4         0x00000000        0x0
 .bss           0x00000000        0x0 c:/program files (x86)/microchip/mplabc32/v2.02/bin/../lib/gcc/pic32mx/4.5.1\libgcc.a(_umoddi3.o)

.data%z5        0x00000000        0x0
 .data          0x00000000        0x0 c:/program files (x86)/microchip/mplabc32/v2.02/bin/../lib/gcc/pic32mx/4.5.1\libgcc.a(_umoddi3.o)

.mdebug.abi32%z6
                0x00000000        0x0
 .mdebug.abi32  0x00000000        0x0 c:/program files (x86)/microchip/mplabc32/v2.02/bin/../lib/gcc/pic32mx/4.5.1\libgcc.a(_udivdi3.o)

.bss%z7         0x00000000        0x0
 .bss           0x00000000        0x0 c:/program files (x86)/microchip/mplabc32/v2.02/bin/../lib/gcc/pic32mx/4.5.1\libgcc.a(_udivdi3.o)

.data%z8        0x00000000        0x0
 .data          0x00000000        0x0 c:/program files (x86)/microchip/mplabc32/v2.02/bin/../lib/gcc/pic32mx/4.5.1\libgcc.a(_udivdi3.o)

.mdebug.abi32%z9
                0x00000000        0x0
 .mdebug.abi32  0x00000000        0x0 c:/program files (x86)/microchip/mplabc32/v2.02/bin/../lib/gcc/pic32mx/4.5.1\libgcc.a(_floatundisf.o)

.bss%z10        0x00000000        0x0
 .bss           0x00000000        0x0 c:/program files (x86)/microchip/mplabc32/v2.02/bin/../lib/gcc/pic32mx/4.5.1\libgcc.a(_floatundisf.o)

.data%z11       0x00000000        0x0
 .data          0x00000000        0x0 c:/program files (x86)/microchip/mplabc32/v2.02/bin/../lib/gcc/pic32mx/4.5.1\libgcc.a(_floatundisf.o)

.mdebug.abi32%z12
                0x00000000        0x0
 .mdebug.abi32  0x00000000        0x0 c:/program files (x86)/microchip/mplabc32/v2.02/bin/../lib/gcc/pic32mx/4.5.1\libgcc.a(_ashldi3.o)

.bss%z13        0x00000000        0x0
 .bss           0x00000000        0x0 c:/program files (x86)/microchip/mplabc32/v2.02/bin/../lib/gcc/pic32mx/4.5.1\libgcc.a(_ashldi3.o)

.data%z14       0x00000000        0x0
 .data          0x00000000        0x0 c:/program files (x86)/microchip/mplabc32/v2.02/bin/../lib/gcc/pic32mx/4.5.1\libgcc.a(_ashldi3.o)

.mdebug.abi32%z15
                0x00000000        0x0
 .mdebug.abi32  0x00000000        0x0 c:/program files (x86)/microchip/mplabc32/v2.02/bin/../lib/gcc/pic32mx/4.5.1\libgcc.a(_lshrdi3.o)

.bss%z16        0x00000000        0x0
 .bss           0x00000000        0x0 c:/program files (x86)/microchip/mplabc32/v2.02/bin/../lib/gcc/pic32mx/4.5.1\libgcc.a(_lshrdi3.o)

.data%z17       0x00000000        0x0
 .data          0x00000000        0x0 c:/program files (x86)/microchip/mplabc32/v2.02/bin/../lib/gcc/pic32mx/4.5.1\libgcc.a(_lshrdi3.o)

.mdebug.abi32%z18
                0x00000000        0x0
 .mdebug.abi32  0x00000000        0x0 c:/program files (x86)/microchip/mplabc32/v2.02/bin/../lib/gcc/pic32mx/4.5.1/../../../../pic32mx/lib\libc.a(errno.o)

.bss%z19        0x00000000        0x0
 .bss           0x00000000        0x0 c:/program files (x86)/microchip/mplabc32/v2.02/bin/../lib/gcc/pic32mx/4.5.1/../../../../pic32mx/lib\libc.a(errno.o)

.data%z20       0x00000000        0x0
 .data          0x00000000        0x0 c:/program files (x86)/microchip/mplabc32/v2.02/bin/../lib/gcc/pic32mx/4.5.1/../../../../pic32mx/lib\libc.a(errno.o)

.mdebug.abi32%z21
                0x00000000        0x0
 .mdebug.abi32  0x00000000        0x0 c:/program files (x86)/microchip/mplabc32/v2.02/bin/../lib/gcc/pic32mx/4.5.1/../../../../pic32mx/lib\libmchp_peripheral_32MX795F512L.a(int_enable_interrupts_lib.o)

.bss%z22        0x00000000        0x0
 .bss           0x00000000        0x0 c:/program files (x86)/microchip/mplabc32/v2.02/bin/../lib/gcc/pic32mx/4.5.1/../../../../pic32mx/lib\libmchp_peripheral_32MX795F512L.a(int_enable_interrupts_lib.o)

.data%z23       0x00000000        0x0
 .data          0x00000000        0x0 c:/program files (x86)/microchip/mplabc32/v2.02/bin/../lib/gcc/pic32mx/4.5.1/../../../../pic32mx/lib\libmchp_peripheral_32MX795F512L.a(int_enable_interrupts_lib.o)

.mdebug.abi32%z24
                0x00000000        0x0
 .mdebug.abi32  0x00000000        0x0 c:/program files (x86)/microchip/mplabc32/v2.02/bin/../lib/gcc/pic32mx/4.5.1/../../../../pic32mx/lib\libmchp_peripheral_32MX795F512L.a(uart_lib.o)

.bss%z25        0x00000000        0x0
 .bss           0x00000000        0x0 c:/program files (x86)/microchip/mplabc32/v2.02/bin/../lib/gcc/pic32mx/4.5.1/../../../../pic32mx/lib\libmchp_peripheral_32MX795F512L.a(uart_lib.o)

.data%z26       0x00000000        0x0
 .data          0x00000000        0x0 c:/program files (x86)/microchip/mplabc32/v2.02/bin/../lib/gcc/pic32mx/4.5.1/../../../../pic32mx/lib\libmchp_peripheral_32MX795F512L.a(uart_lib.o)

.mdebug.abi32%z27
                0x00000000        0x0
 .mdebug.abi32  0x00000000        0x0 c:/program files (x86)/microchip/mplabc32/v2.02/bin/../lib/gcc/pic32mx/4.5.1/../../../../pic32mx/lib\libmchp_peripheral_32MX795F512L.a(_ports_tbl_libp.o)

.bss%z28        0x00000000        0x0
 .bss           0x00000000        0x0 c:/program files (x86)/microchip/mplabc32/v2.02/bin/../lib/gcc/pic32mx/4.5.1/../../../../pic32mx/lib\libmchp_peripheral_32MX795F512L.a(_ports_tbl_libp.o)

.data%z29       0x00000000        0x0
 .data          0x00000000        0x0 c:/program files (x86)/microchip/mplabc32/v2.02/bin/../lib/gcc/pic32mx/4.5.1/../../../../pic32mx/lib\libmchp_peripheral_32MX795F512L.a(_ports_tbl_libp.o)

.mdebug.abi32%z30
                0x00000000        0x0
 .mdebug.abi32  0x00000000        0x0 c:/program files (x86)/microchip/mplabc32/v2.02/bin/../lib/gcc/pic32mx/4.5.1/../../../../pic32mx/lib\libmchp_peripheral_32MX795F512L.a(port_set_pins_digital_out_lib.o)

.bss%z31        0x00000000        0x0
 .bss           0x00000000        0x0 c:/program files (x86)/microchip/mplabc32/v2.02/bin/../lib/gcc/pic32mx/4.5.1/../../../../pic32mx/lib\libmchp_peripheral_32MX795F512L.a(port_set_pins_digital_out_lib.o)

.data%z32       0x00000000        0x0
 .data          0x00000000        0x0 c:/program files (x86)/microchip/mplabc32/v2.02/bin/../lib/gcc/pic32mx/4.5.1/../../../../pic32mx/lib\libmchp_peripheral_32MX795F512L.a(port_set_pins_digital_out_lib.o)

.mdebug.abi32%z33
                0x00000000        0x0
 .mdebug.abi32  0x00000000        0x0 c:/program files (x86)/microchip/mplabc32/v2.02/bin/../lib/gcc/pic32mx/4.5.1/../../../../pic32mx/lib\libmchp_peripheral_32MX795F512L.a(port_set_pins_digital_in_lib.o)

.bss%z34        0x00000000        0x0
 .bss           0x00000000        0x0 c:/program files (x86)/microchip/mplabc32/v2.02/bin/../lib/gcc/pic32mx/4.5.1/../../../../pic32mx/lib\libmchp_peripheral_32MX795F512L.a(port_set_pins_digital_in_lib.o)

.data%z35       0x00000000        0x0
 .data          0x00000000        0x0 c:/program files (x86)/microchip/mplabc32/v2.02/bin/../lib/gcc/pic32mx/4.5.1/../../../../pic32mx/lib\libmchp_peripheral_32MX795F512L.a(port_set_pins_digital_in_lib.o)

.mdebug.abi32%z36
                0x00000000        0x0
 .mdebug.abi32  0x00000000        0x0 c:/program files (x86)/microchip/mplabc32/v2.02/bin/../lib/gcc/pic32mx/4.5.1/../../../../pic32mx/lib\libmchp_peripheral_32MX795F512L.a(nvm_write_row_lib.o)

.bss%z37        0x00000000        0x0
 .bss           0x00000000        0x0 c:/program files (x86)/microchip/mplabc32/v2.02/bin/../lib/gcc/pic32mx/4.5.1/../../../../pic32mx/lib\libmchp_peripheral_32MX795F512L.a(nvm_write_row_lib.o)

.data%z38       0x00000000        0x0
 .data          0x00000000        0x0 c:/program files (x86)/microchip/mplabc32/v2.02/bin/../lib/gcc/pic32mx/4.5.1/../../../../pic32mx/lib\libmchp_peripheral_32MX795F512L.a(nvm_write_row_lib.o)

.mdebug.abi32%z39
                0x00000000        0x0
 .mdebug.abi32  0x00000000        0x0 c:/program files (x86)/microchip/mplabc32/v2.02/bin/../lib/gcc/pic32mx/4.5.1/../../../../pic32mx/lib\libmchp_peripheral_32MX795F512L.a(nvm_operation_lib.o)

.bss%z40        0x00000000        0x0
 .bss           0x00000000        0x0 c:/program files (x86)/microchip/mplabc32/v2.02/bin/../lib/gcc/pic32mx/4.5.1/../../../../pic32mx/lib\libmchp_peripheral_32MX795F512L.a(nvm_operation_lib.o)

.data%z41       0x00000000        0x0
 .data          0x00000000        0x0 c:/program files (x86)/microchip/mplabc32/v2.02/bin/../lib/gcc/pic32mx/4.5.1/../../../../pic32mx/lib\libmchp_peripheral_32MX795F512L.a(nvm_operation_lib.o)

.mdebug.abi32%z42
                0x00000000        0x0
 .mdebug.abi32  0x00000000        0x0 c:/program files (x86)/microchip/mplabc32/v2.02/bin/../lib/gcc/pic32mx/4.5.1/../../../../pic32mx/lib\libmchp_peripheral_32MX795F512L.a(nvm_erase_page_lib.o)

.bss%z43        0x00000000        0x0
 .bss           0x00000000        0x0 c:/program files (x86)/microchip/mplabc32/v2.02/bin/../lib/gcc/pic32mx/4.5.1/../../../../pic32mx/lib\libmchp_peripheral_32MX795F512L.a(nvm_erase_page_lib.o)

.data%z44       0x00000000        0x0
 .data          0x00000000        0x0 c:/program files (x86)/microchip/mplabc32/v2.02/bin/../lib/gcc/pic32mx/4.5.1/../../../../pic32mx/lib\libmchp_peripheral_32MX795F512L.a(nvm_erase_page_lib.o)

.mdebug.abi32%z45
                0x00000000        0x0
 .mdebug.abi32  0x00000000        0x0 c:/program files (x86)/microchip/mplabc32/v2.02/bin/../lib/gcc/pic32mx/4.5.1/../../../../pic32mx/lib\libmchp_peripheral_32MX795F512L.a(spi_map_tbl_libp.o)

.bss%z46        0x00000000        0x0
 .bss           0x00000000        0x0 c:/program files (x86)/microchip/mplabc32/v2.02/bin/../lib/gcc/pic32mx/4.5.1/../../../../pic32mx/lib\libmchp_peripheral_32MX795F512L.a(spi_map_tbl_libp.o)

.data%z47       0x00000000        0x0
 .data          0x00000000        0x0 c:/program files (x86)/microchip/mplabc32/v2.02/bin/../lib/gcc/pic32mx/4.5.1/../../../../pic32mx/lib\libmchp_peripheral_32MX795F512L.a(spi_map_tbl_libp.o)

.mdebug.abi32%z48
                0x00000000        0x0
 .mdebug.abi32  0x00000000        0x0 c:/program files (x86)/microchip/mplabc32/v2.02/bin/../lib/gcc/pic32mx/4.5.1/../../../../pic32mx/lib\libmchp_peripheral_32MX795F512L.a(spi_io_tbl_libp.o)

.bss%z49        0x00000000        0x0
 .bss           0x00000000        0x0 c:/program files (x86)/microchip/mplabc32/v2.02/bin/../lib/gcc/pic32mx/4.5.1/../../../../pic32mx/lib\libmchp_peripheral_32MX795F512L.a(spi_io_tbl_libp.o)

.data%z50       0x00000000        0x0
 .data          0x00000000        0x0 c:/program files (x86)/microchip/mplabc32/v2.02/bin/../lib/gcc/pic32mx/4.5.1/../../../../pic32mx/lib\libmchp_peripheral_32MX795F512L.a(spi_io_tbl_libp.o)

.mdebug.abi32%z51
                0x00000000        0x0
 .mdebug.abi32  0x00000000        0x0 c:/program files (x86)/microchip/mplabc32/v2.02/bin/../lib/gcc/pic32mx/4.5.1/../../../../pic32mx/lib\libmchp_peripheral_32MX795F512L.a(spi_chn_open_lib.o)

.bss%z52        0x00000000        0x0
 .bss           0x00000000        0x0 c:/program files (x86)/microchip/mplabc32/v2.02/bin/../lib/gcc/pic32mx/4.5.1/../../../../pic32mx/lib\libmchp_peripheral_32MX795F512L.a(spi_chn_open_lib.o)

.data%z53       0x00000000        0x0
 .data          0x00000000        0x0 c:/program files (x86)/microchip/mplabc32/v2.02/bin/../lib/gcc/pic32mx/4.5.1/../../../../pic32mx/lib\libmchp_peripheral_32MX795F512L.a(spi_chn_open_lib.o)

.mdebug.abi32%z54
                0x00000000        0x0
 .mdebug.abi32  0x00000000        0x0 c:/program files (x86)/microchip/mplabc32/v2.02/bin/../lib/gcc/pic32mx/4.5.1/../../../../pic32mx/lib\libmchp_peripheral_32MX795F512L.a(int_tbl_lib.o)

.bss%z55        0x00000000        0x0
 .bss           0x00000000        0x0 c:/program files (x86)/microchip/mplabc32/v2.02/bin/../lib/gcc/pic32mx/4.5.1/../../../../pic32mx/lib\libmchp_peripheral_32MX795F512L.a(int_tbl_lib.o)

.data%z56       0x00000000        0x0
 .data          0x00000000        0x0 c:/program files (x86)/microchip/mplabc32/v2.02/bin/../lib/gcc/pic32mx/4.5.1/../../../../pic32mx/lib\libmchp_peripheral_32MX795F512L.a(int_tbl_lib.o)

.mdebug.abi32%z57
                0x00000000        0x0
 .mdebug.abi32  0x00000000        0x0 c:/program files (x86)/microchip/mplabc32/v2.02/bin/../lib/gcc/pic32mx/4.5.1/../../../../pic32mx/lib\libmchp_peripheral_32MX795F512L.a(int_enable_mv_int_lib.o)

.bss%z58        0x00000000        0x0
 .bss           0x00000000        0x0 c:/program files (x86)/microchip/mplabc32/v2.02/bin/../lib/gcc/pic32mx/4.5.1/../../../../pic32mx/lib\libmchp_peripheral_32MX795F512L.a(int_enable_mv_int_lib.o)

.data%z59       0x00000000        0x0
 .data          0x00000000        0x0 c:/program files (x86)/microchip/mplabc32/v2.02/bin/../lib/gcc/pic32mx/4.5.1/../../../../pic32mx/lib\libmchp_peripheral_32MX795F512L.a(int_enable_mv_int_lib.o)

.mdebug.abi32%z60
                0x00000000        0x0
 .mdebug.abi32  0x00000000        0x0 c:/program files (x86)/microchip/mplabc32/v2.02/bin/../lib/gcc/pic32mx/4.5.1/../../../../pic32mx/lib\libmchp_peripheral_32MX795F512L.a(int_restore_interrupts_lib.o)

.bss%z61        0x00000000        0x0
 .bss           0x00000000        0x0 c:/program files (x86)/microchip/mplabc32/v2.02/bin/../lib/gcc/pic32mx/4.5.1/../../../../pic32mx/lib\libmchp_peripheral_32MX795F512L.a(int_restore_interrupts_lib.o)

.data%z62       0x00000000        0x0
 .data          0x00000000        0x0 c:/program files (x86)/microchip/mplabc32/v2.02/bin/../lib/gcc/pic32mx/4.5.1/../../../../pic32mx/lib\libmchp_peripheral_32MX795F512L.a(int_restore_interrupts_lib.o)

.mdebug.abi32%z63
                0x00000000        0x0
 .mdebug.abi32  0x00000000        0x0 c:/program files (x86)/microchip/mplabc32/v2.02/bin/../lib/gcc/pic32mx/4.5.1/../../../../pic32mx/lib\libmchp_peripheral_32MX795F512L.a(int_disable_interrupts_lib.o)

.bss%z64        0x00000000        0x0
 .bss           0x00000000        0x0 c:/program files (x86)/microchip/mplabc32/v2.02/bin/../lib/gcc/pic32mx/4.5.1/../../../../pic32mx/lib\libmchp_peripheral_32MX795F512L.a(int_disable_interrupts_lib.o)

.data%z65       0x00000000        0x0
 .data          0x00000000        0x0 c:/program files (x86)/microchip/mplabc32/v2.02/bin/../lib/gcc/pic32mx/4.5.1/../../../../pic32mx/lib\libmchp_peripheral_32MX795F512L.a(int_disable_interrupts_lib.o)

.mdebug.abi32%z66
                0x00000000        0x0
 .mdebug.abi32  0x00000000        0x0 c:/program files (x86)/microchip/mplabc32/v2.02/bin/../lib/gcc/pic32mx/4.5.1/../../../../pic32mx/lib\libmchp_peripheral_32MX795F512L.a(osc_config_lib.o)

.bss%z67        0x00000000        0x0
 .bss           0x00000000        0x0 c:/program files (x86)/microchip/mplabc32/v2.02/bin/../lib/gcc/pic32mx/4.5.1/../../../../pic32mx/lib\libmchp_peripheral_32MX795F512L.a(osc_config_lib.o)

.data%z68       0x00000000        0x0
 .data          0x00000000        0x0 c:/program files (x86)/microchip/mplabc32/v2.02/bin/../lib/gcc/pic32mx/4.5.1/../../../../pic32mx/lib\libmchp_peripheral_32MX795F512L.a(osc_config_lib.o)

.mdebug.abi32%z69
                0x00000000        0x0
 .mdebug.abi32  0x00000000        0x0 c:/program files (x86)/microchip/mplabc32/v2.02/bin/../lib/gcc/pic32mx/4.5.1/../../../../pic32mx/lib\libmchp_peripheral_32MX795F512L.a(pcache.o)

.bss%z70        0x00000000        0x0
 .bss           0x00000000        0x0 c:/program files (x86)/microchip/mplabc32/v2.02/bin/../lib/gcc/pic32mx/4.5.1/../../../../pic32mx/lib\libmchp_peripheral_32MX795F512L.a(pcache.o)

.data%z71       0x00000000        0x0
 .data          0x00000000        0x0 c:/program files (x86)/microchip/mplabc32/v2.02/bin/../lib/gcc/pic32mx/4.5.1/../../../../pic32mx/lib\libmchp_peripheral_32MX795F512L.a(pcache.o)

.mdebug.abi32%z72
                0x00000000        0x0
 .mdebug.abi32  0x00000000        0x0 c:/program files (x86)/microchip/mplabc32/v2.02/bin/../lib/gcc/pic32mx/4.5.1/../../../../pic32mx/lib\libmchp_peripheral_32MX795F512L.a(soft_reset_lib.o)

.bss%z73        0x00000000        0x0
 .bss           0x00000000        0x0 c:/program files (x86)/microchip/mplabc32/v2.02/bin/../lib/gcc/pic32mx/4.5.1/../../../../pic32mx/lib\libmchp_peripheral_32MX795F512L.a(soft_reset_lib.o)

.data%z74       0x00000000        0x0
 .data          0x00000000        0x0 c:/program files (x86)/microchip/mplabc32/v2.02/bin/../lib/gcc/pic32mx/4.5.1/../../../../pic32mx/lib\libmchp_peripheral_32MX795F512L.a(soft_reset_lib.o)

.mdebug.abi32%z75
                0x00000000        0x0
 .mdebug.abi32  0x00000000        0x0 c:/program files (x86)/microchip/mplabc32/v2.02/bin/../lib/gcc/pic32mx/4.5.1/../../../../pic32mx/lib\libe.a(_ldexp.o)

.bss%z76        0x00000000        0x0
 .bss           0x00000000        0x0 c:/program files (x86)/microchip/mplabc32/v2.02/bin/../lib/gcc/pic32mx/4.5.1/../../../../pic32mx/lib\libe.a(_ldexp.o)

.data%z77       0x00000000        0x0
 .data          0x00000000        0x0 c:/program files (x86)/microchip/mplabc32/v2.02/bin/../lib/gcc/pic32mx/4.5.1/../../../../pic32mx/lib\libe.a(_ldexp.o)

.mdebug.abi32%z78
                0x00000000        0x0
 .mdebug.abi32  0x00000000        0x0 c:/program files (x86)/microchip/mplabc32/v2.02/bin/../lib/gcc/pic32mx/4.5.1/../../../../pic32mx/lib\libe.a(_strtod.o)

.bss%z79        0x00000000        0x0
 .bss           0x00000000        0x0 c:/program files (x86)/microchip/mplabc32/v2.02/bin/../lib/gcc/pic32mx/4.5.1/../../../../pic32mx/lib\libe.a(_strtod.o)

.data%z80       0x00000000        0x0
 .data          0x00000000        0x0 c:/program files (x86)/microchip/mplabc32/v2.02/bin/../lib/gcc/pic32mx/4.5.1/../../../../pic32mx/lib\libe.a(_strtod.o)

.mdebug.abi32%z81
                0x00000000        0x0
 .mdebug.abi32  0x00000000        0x0 c:/program files (x86)/microchip/mplabc32/v2.02/bin/../lib/gcc/pic32mx/4.5.1/../../../../pic32mx/lib\libe.a(_floatdisf.o)

.bss%z82        0x00000000        0x0
 .bss           0x00000000        0x0 c:/program files (x86)/microchip/mplabc32/v2.02/bin/../lib/gcc/pic32mx/4.5.1/../../../../pic32mx/lib\libe.a(_floatdisf.o)

.data%z83       0x00000000        0x0
 .data          0x00000000        0x0 c:/program files (x86)/microchip/mplabc32/v2.02/bin/../lib/gcc/pic32mx/4.5.1/../../../../pic32mx/lib\libe.a(_floatdisf.o)

.bss%z84        0x00000000        0x0
 .bss           0x00000000        0x0 c:/program files (x86)/microchip/mplabc32/v2.02/bin/../lib/gcc/pic32mx/4.5.1/../../../../pic32mx/lib\libm.a(fpsqrt32.o)

.data%z85       0x00000000        0x0
 .data          0x00000000        0x0 c:/program files (x86)/microchip/mplabc32/v2.02/bin/../lib/gcc/pic32mx/4.5.1/../../../../pic32mx/lib\libm.a(fpsqrt32.o)

.mdebug.abi32%z86
                0x00000000        0x0
 .mdebug.abi32  0x00000000        0x0 c:/program files (x86)/microchip/mplabc32/v2.02/bin/../lib/gcc/pic32mx/4.5.1/../../../../pic32mx/lib\libm.a(s_lib_ver.o)

.bss%z87        0x00000000        0x0
 .bss           0x00000000        0x0 c:/program files (x86)/microchip/mplabc32/v2.02/bin/../lib/gcc/pic32mx/4.5.1/../../../../pic32mx/lib\libm.a(s_lib_ver.o)

.data%z88       0x00000000        0x0
 .data          0x00000000        0x0 c:/program files (x86)/microchip/mplabc32/v2.02/bin/../lib/gcc/pic32mx/4.5.1/../../../../pic32mx/lib\libm.a(s_lib_ver.o)

.bss%z89        0x00000000        0x0
 .bss           0x00000000        0x0 c:/program files (x86)/microchip/mplabc32/v2.02/bin/../lib/gcc/pic32mx/4.5.1/../../../../pic32mx/lib\libm.a(fp32.o)

.data%z90       0x00000000        0x0
 .data          0x00000000        0x0 c:/program files (x86)/microchip/mplabc32/v2.02/bin/../lib/gcc/pic32mx/4.5.1/../../../../pic32mx/lib\libm.a(fp32.o)

.mdebug.abi32%z91
                0x00000000        0x0
 .mdebug.abi32  0x00000000        0x0 c:/program files (x86)/microchip/mplabc32/v2.02/bin/../lib/gcc/pic32mx/4.5.1/../../../../pic32mx/lib\libm.a(w_sqrtf.o)

.bss%z92        0x00000000        0x0
 .bss           0x00000000        0x0 c:/program files (x86)/microchip/mplabc32/v2.02/bin/../lib/gcc/pic32mx/4.5.1/../../../../pic32mx/lib\libm.a(w_sqrtf.o)

.data%z93       0x00000000        0x0
 .data          0x00000000        0x0 c:/program files (x86)/microchip/mplabc32/v2.02/bin/../lib/gcc/pic32mx/4.5.1/../../../../pic32mx/lib\libm.a(w_sqrtf.o)

.bss%z94        0x00000000        0x0
 .bss           0x00000000        0x0 c:/program files (x86)/microchip/mplabc32/v2.02/bin/../lib/gcc/pic32mx/4.5.1/../../../../pic32mx/lib\libm.a(dp32.o)

.data%z95       0x00000000        0x0
 .data          0x00000000        0x0 c:/program files (x86)/microchip/mplabc32/v2.02/bin/../lib/gcc/pic32mx/4.5.1/../../../../pic32mx/lib\libm.a(dp32.o)

.bss%z96        0x00000000        0x0
 .bss           0x00000000        0x0 c:/program files (x86)/microchip/mplabc32/v2.02/bin/../lib/gcc/pic32mx/4.5.1/../../../../pic32mx/lib\libm.a(fpmod32.o)

.data%z97       0x00000000        0x0
 .data          0x00000000        0x0 c:/program files (x86)/microchip/mplabc32/v2.02/bin/../lib/gcc/pic32mx/4.5.1/../../../../pic32mx/lib\libm.a(fpmod32.o)

.mdebug.abi32%z98
                0x00000000        0x0
 .mdebug.abi32  0x00000000        0x0 c:/program files (x86)/microchip/mplabc32/v2.02/bin/../lib/gcc/pic32mx/4.5.1/../../../../pic32mx/lib\libc.a(c32_uart.o)

.bss%z99        0x00000000        0x0
 .bss           0x00000000        0x0 c:/program files (x86)/microchip/mplabc32/v2.02/bin/../lib/gcc/pic32mx/4.5.1/../../../../pic32mx/lib\libc.a(c32_uart.o)

.data%z100      0x00000000        0x0
 .data          0x00000000        0x0 c:/program files (x86)/microchip/mplabc32/v2.02/bin/../lib/gcc/pic32mx/4.5.1/../../../../pic32mx/lib\libc.a(c32_uart.o)

.mdebug.abi32%z101
                0x00000000        0x0
 .mdebug.abi32  0x00000000        0x0 c:/program files (x86)/microchip/mplabc32/v2.02/bin/../lib/gcc/pic32mx/4.5.1/../../../../pic32mx/lib\libc.a(_mon_putc.o)

.bss%z102       0x00000000        0x0
 .bss           0x00000000        0x0 c:/program files (x86)/microchip/mplabc32/v2.02/bin/../lib/gcc/pic32mx/4.5.1/../../../../pic32mx/lib\libc.a(_mon_putc.o)

.data%z103      0x00000000        0x0
 .data          0x00000000        0x0 c:/program files (x86)/microchip/mplabc32/v2.02/bin/../lib/gcc/pic32mx/4.5.1/../../../../pic32mx/lib\libc.a(_mon_putc.o)

.mdebug.abi32%z104
                0x00000000        0x0
 .mdebug.abi32  0x00000000        0x0 c:/program files (x86)/microchip/mplabc32/v2.02/bin/../lib/gcc/pic32mx/4.5.1/../../../../pic32mx/lib\libc.a(_flsbuf_simple.o)

.bss%z105       0x00000000        0x0
 .bss           0x00000000        0x0 c:/program files (x86)/microchip/mplabc32/v2.02/bin/../lib/gcc/pic32mx/4.5.1/../../../../pic32mx/lib\libc.a(_flsbuf_simple.o)

.data%z106      0x00000000        0x0
 .data          0x00000000        0x0 c:/program files (x86)/microchip/mplabc32/v2.02/bin/../lib/gcc/pic32mx/4.5.1/../../../../pic32mx/lib\libc.a(_flsbuf_simple.o)

.mdebug.abi32%z107
                0x00000000        0x0
 .mdebug.abi32  0x00000000        0x0 c:/program files (x86)/microchip/mplabc32/v2.02/bin/../lib/gcc/pic32mx/4.5.1/../../../../pic32mx/lib\libc.a(_iob.o)

.mdebug.abi32%z108
                0x00000000        0x0
 .mdebug.abi32  0x00000000        0x0 c:/program files (x86)/microchip/mplabc32/v2.02/bin/../lib/gcc/pic32mx/4.5.1/../../../../pic32mx/lib\libc.a(write.o)

.bss%z109       0x00000000        0x0
 .bss           0x00000000        0x0 c:/program files (x86)/microchip/mplabc32/v2.02/bin/../lib/gcc/pic32mx/4.5.1/../../../../pic32mx/lib\libc.a(write.o)

.data%z110      0x00000000        0x0
 .data          0x00000000        0x0 c:/program files (x86)/microchip/mplabc32/v2.02/bin/../lib/gcc/pic32mx/4.5.1/../../../../pic32mx/lib\libc.a(write.o)

.mdebug.abi32%z111
                0x00000000        0x0
 .mdebug.abi32  0x00000000        0x0 c:/program files (x86)/microchip/mplabc32/v2.02/bin/../lib/gcc/pic32mx/4.5.1/../../../../pic32mx/lib\libc.a(powers.o)

.bss%z112       0x00000000        0x0
 .bss           0x00000000        0x0 c:/program files (x86)/microchip/mplabc32/v2.02/bin/../lib/gcc/pic32mx/4.5.1/../../../../pic32mx/lib\libc.a(powers.o)

.data%z113      0x00000000        0x0
 .data          0x00000000        0x0 c:/program files (x86)/microchip/mplabc32/v2.02/bin/../lib/gcc/pic32mx/4.5.1/../../../../pic32mx/lib\libc.a(powers.o)

.mdebug.abi32%z114
                0x00000000        0x0
 .mdebug.abi32  0x00000000        0x0 c:/program files (x86)/microchip/mplabc32/v2.02/bin/../lib/gcc/pic32mx/4.5.1/../../../../pic32mx/lib\libc.a(_fputc_simple.o)

.bss%z115       0x00000000        0x0
 .bss           0x00000000        0x0 c:/program files (x86)/microchip/mplabc32/v2.02/bin/../lib/gcc/pic32mx/4.5.1/../../../../pic32mx/lib\libc.a(_fputc_simple.o)

.data%z116      0x00000000        0x0
 .data          0x00000000        0x0 c:/program files (x86)/microchip/mplabc32/v2.02/bin/../lib/gcc/pic32mx/4.5.1/../../../../pic32mx/lib\libc.a(_fputc_simple.o)

.mdebug.abi32%z117
                0x00000000        0x0
 .mdebug.abi32  0x00000000        0x0 c:/program files (x86)/microchip/mplabc32/v2.02/bin/../lib/gcc/pic32mx/4.5.1/../../../../pic32mx/lib\libc.a(doprnt_cdfFnopsuxX.eo)

.bss%z118       0x00000000        0x0
 .bss           0x00000000        0x0 c:/program files (x86)/microchip/mplabc32/v2.02/bin/../lib/gcc/pic32mx/4.5.1/../../../../pic32mx/lib\libc.a(doprnt_cdfFnopsuxX.eo)

.data%z119      0x00000000        0x0
 .data          0x00000000        0x0 c:/program files (x86)/microchip/mplabc32/v2.02/bin/../lib/gcc/pic32mx/4.5.1/../../../../pic32mx/lib\libc.a(doprnt_cdfFnopsuxX.eo)

.mdebug.abi32%z120
                0x00000000        0x0
 .mdebug.abi32  0x00000000        0x0 c:/program files (x86)/microchip/mplabc32/v2.02/bin/../lib/gcc/pic32mx/4.5.1/../../../../pic32mx/lib\libc.a(strtod.o)

.bss%z121       0x00000000        0x0
 .bss           0x00000000        0x0 c:/program files (x86)/microchip/mplabc32/v2.02/bin/../lib/gcc/pic32mx/4.5.1/../../../../pic32mx/lib\libc.a(strtod.o)

.data%z122      0x00000000        0x0
 .data          0x00000000        0x0 c:/program files (x86)/microchip/mplabc32/v2.02/bin/../lib/gcc/pic32mx/4.5.1/../../../../pic32mx/lib\libc.a(strtod.o)

.mdebug.abi32%z123
                0x00000000        0x0
 .mdebug.abi32  0x00000000        0x0 c:/program files (x86)/microchip/mplabc32/v2.02/bin/../lib/gcc/pic32mx/4.5.1/../../../../pic32mx/lib\libc.a(strspn.o)

.bss%z124       0x00000000        0x0
 .bss           0x00000000        0x0 c:/program files (x86)/microchip/mplabc32/v2.02/bin/../lib/gcc/pic32mx/4.5.1/../../../../pic32mx/lib\libc.a(strspn.o)

.data%z125      0x00000000        0x0
 .data          0x00000000        0x0 c:/program files (x86)/microchip/mplabc32/v2.02/bin/../lib/gcc/pic32mx/4.5.1/../../../../pic32mx/lib\libc.a(strspn.o)

.mdebug.abi32%z126
                0x00000000        0x0
 .mdebug.abi32  0x00000000        0x0 c:/program files (x86)/microchip/mplabc32/v2.02/bin/../lib/gcc/pic32mx/4.5.1/../../../../pic32mx/lib\libc.a(strcspn.o)

.bss%z127       0x00000000        0x0
 .bss           0x00000000        0x0 c:/program files (x86)/microchip/mplabc32/v2.02/bin/../lib/gcc/pic32mx/4.5.1/../../../../pic32mx/lib\libc.a(strcspn.o)

.data%z128      0x00000000        0x0
 .data          0x00000000        0x0 c:/program files (x86)/microchip/mplabc32/v2.02/bin/../lib/gcc/pic32mx/4.5.1/../../../../pic32mx/lib\libc.a(strcspn.o)

.bss%z129       0x00000000        0x0
 .bss           0x00000000        0x0 c:/program files (x86)/microchip/mplabc32/v2.02/bin/../lib/gcc/pic32mx/4.5.1/../../../../pic32mx/lib\libc.a(default-nmi-handler.o)

.data%z130      0x00000000        0x0
 .data          0x00000000        0x0 c:/program files (x86)/microchip/mplabc32/v2.02/bin/../lib/gcc/pic32mx/4.5.1/../../../../pic32mx/lib\libc.a(default-nmi-handler.o)

.mdebug.abi32%z131
                0x00000000        0x0
 .mdebug.abi32  0x00000000        0x0 c:/program files (x86)/microchip/mplabc32/v2.02/bin/../lib/gcc/pic32mx/4.5.1/../../../../pic32mx/lib\libc.a(default-on-bootstrap.o)

.bss%z132       0x00000000        0x0
 .bss           0x00000000        0x0 c:/program files (x86)/microchip/mplabc32/v2.02/bin/../lib/gcc/pic32mx/4.5.1/../../../../pic32mx/lib\libc.a(default-on-bootstrap.o)

.data%z133      0x00000000        0x0
 .data          0x00000000        0x0 c:/program files (x86)/microchip/mplabc32/v2.02/bin/../lib/gcc/pic32mx/4.5.1/../../../../pic32mx/lib\libc.a(default-on-bootstrap.o)

.mdebug.abi32%z134
                0x00000000        0x0
 .mdebug.abi32  0x00000000        0x0 c:/program files (x86)/microchip/mplabc32/v2.02/bin/../lib/gcc/pic32mx/4.5.1/../../../../pic32mx/lib\libc.a(default-on-reset.o)

.bss%z135       0x00000000        0x0
 .bss           0x00000000        0x0 c:/program files (x86)/microchip/mplabc32/v2.02/bin/../lib/gcc/pic32mx/4.5.1/../../../../pic32mx/lib\libc.a(default-on-reset.o)

.data%z136      0x00000000        0x0
 .data          0x00000000        0x0 c:/program files (x86)/microchip/mplabc32/v2.02/bin/../lib/gcc/pic32mx/4.5.1/../../../../pic32mx/lib\libc.a(default-on-reset.o)

.mdebug.abi32%z137
                0x00000000        0x0
 .mdebug.abi32  0x00000000        0x0 c:/program files (x86)/microchip/mplabc32/v2.02/bin/../lib/gcc/pic32mx/4.5.1/../../../../pic32mx/lib\libc.a(default-bootstrap-exception-handler.o)

.bss%z138       0x00000000        0x0
 .bss           0x00000000        0x0 c:/program files (x86)/microchip/mplabc32/v2.02/bin/../lib/gcc/pic32mx/4.5.1/../../../../pic32mx/lib\libc.a(default-bootstrap-exception-handler.o)

.data%z139      0x00000000        0x0
 .data          0x00000000        0x0 c:/program files (x86)/microchip/mplabc32/v2.02/bin/../lib/gcc/pic32mx/4.5.1/../../../../pic32mx/lib\libc.a(default-bootstrap-exception-handler.o)

.mdebug.abi32%z140
                0x00000000        0x0
 .mdebug.abi32  0x00000000        0x0 c:/program files (x86)/microchip/mplabc32/v2.02/bin/../lib/gcc/pic32mx/4.5.1/../../../../pic32mx/lib\libc.a(sprintf_cdfFnopsuxX.eo)

.bss%z141       0x00000000        0x0
 .bss           0x00000000        0x0 c:/program files (x86)/microchip/mplabc32/v2.02/bin/../lib/gcc/pic32mx/4.5.1/../../../../pic32mx/lib\libc.a(sprintf_cdfFnopsuxX.eo)

.data%z142      0x00000000        0x0
 .data          0x00000000        0x0 c:/program files (x86)/microchip/mplabc32/v2.02/bin/../lib/gcc/pic32mx/4.5.1/../../../../pic32mx/lib\libc.a(sprintf_cdfFnopsuxX.eo)

.mdebug.abi32%z143
                0x00000000        0x0
 .mdebug.abi32  0x00000000        0x0 c:/program files (x86)/microchip/mplabc32/v2.02/bin/../lib/gcc/pic32mx/4.5.1/../../../../pic32mx/lib\libc.a(atof.o)

.bss%z144       0x00000000        0x0
 .bss           0x00000000        0x0 c:/program files (x86)/microchip/mplabc32/v2.02/bin/../lib/gcc/pic32mx/4.5.1/../../../../pic32mx/lib\libc.a(atof.o)

.data%z145      0x00000000        0x0
 .data          0x00000000        0x0 c:/program files (x86)/microchip/mplabc32/v2.02/bin/../lib/gcc/pic32mx/4.5.1/../../../../pic32mx/lib\libc.a(atof.o)

.mdebug.abi32%z146
                0x00000000        0x0
 .mdebug.abi32  0x00000000        0x0 c:/program files (x86)/microchip/mplabc32/v2.02/bin/../lib/gcc/pic32mx/4.5.1/../../../../pic32mx/lib\libc.a(xtoi.o)

.bss%z147       0x00000000        0x0
 .bss           0x00000000        0x0 c:/program files (x86)/microchip/mplabc32/v2.02/bin/../lib/gcc/pic32mx/4.5.1/../../../../pic32mx/lib\libc.a(xtoi.o)

.data%z148      0x00000000        0x0
 .data          0x00000000        0x0 c:/program files (x86)/microchip/mplabc32/v2.02/bin/../lib/gcc/pic32mx/4.5.1/../../../../pic32mx/lib\libc.a(xtoi.o)

.mdebug.abi32%z149
                0x00000000        0x0
 .mdebug.abi32  0x00000000        0x0 c:/program files (x86)/microchip/mplabc32/v2.02/bin/../lib/gcc/pic32mx/4.5.1/../../../../pic32mx/lib\libc.a(strtok.o)

.data%z150      0x00000000        0x0
 .data          0x00000000        0x0 c:/program files (x86)/microchip/mplabc32/v2.02/bin/../lib/gcc/pic32mx/4.5.1/../../../../pic32mx/lib\libc.a(strtok.o)

.mdebug.abi32%z151
                0x00000000        0x0
 .mdebug.abi32  0x00000000        0x0 c:/program files (x86)/microchip/mplabc32/v2.02/bin/../lib/gcc/pic32mx/4.5.1/../../../../pic32mx/lib\libc.a(strstr.o)

.bss%z152       0x00000000        0x0
 .bss           0x00000000        0x0 c:/program files (x86)/microchip/mplabc32/v2.02/bin/../lib/gcc/pic32mx/4.5.1/../../../../pic32mx/lib\libc.a(strstr.o)

.data%z153      0x00000000        0x0
 .data          0x00000000        0x0 c:/program files (x86)/microchip/mplabc32/v2.02/bin/../lib/gcc/pic32mx/4.5.1/../../../../pic32mx/lib\libc.a(strstr.o)

.mdebug.abi32%z154
                0x00000000        0x0
 .mdebug.abi32  0x00000000        0x0 c:/program files (x86)/microchip/mplabc32/v2.02/bin/../lib/gcc/pic32mx/4.5.1/../../../../pic32mx/lib\libc.a(strncpy.o)

.bss%z155       0x00000000        0x0
 .bss           0x00000000        0x0 c:/program files (x86)/microchip/mplabc32/v2.02/bin/../lib/gcc/pic32mx/4.5.1/../../../../pic32mx/lib\libc.a(strncpy.o)

.data%z156      0x00000000        0x0
 .data          0x00000000        0x0 c:/program files (x86)/microchip/mplabc32/v2.02/bin/../lib/gcc/pic32mx/4.5.1/../../../../pic32mx/lib\libc.a(strncpy.o)

.mdebug.abi32%z157
                0x00000000        0x0
 .mdebug.abi32  0x00000000        0x0 c:/program files (x86)/microchip/mplabc32/v2.02/bin/../lib/gcc/pic32mx/4.5.1/../../../../pic32mx/lib\libc.a(strncmp.o)

.bss%z158       0x00000000        0x0
 .bss           0x00000000        0x0 c:/program files (x86)/microchip/mplabc32/v2.02/bin/../lib/gcc/pic32mx/4.5.1/../../../../pic32mx/lib\libc.a(strncmp.o)

.data%z159      0x00000000        0x0
 .data          0x00000000        0x0 c:/program files (x86)/microchip/mplabc32/v2.02/bin/../lib/gcc/pic32mx/4.5.1/../../../../pic32mx/lib\libc.a(strncmp.o)

.mdebug.abi32%z160
                0x00000000        0x0
 .mdebug.abi32  0x00000000        0x0 c:/program files (x86)/microchip/mplabc32/v2.02/bin/../lib/gcc/pic32mx/4.5.1/../../../../pic32mx/lib\libc.a(strncat.o)

.bss%z161       0x00000000        0x0
 .bss           0x00000000        0x0 c:/program files (x86)/microchip/mplabc32/v2.02/bin/../lib/gcc/pic32mx/4.5.1/../../../../pic32mx/lib\libc.a(strncat.o)

.data%z162      0x00000000        0x0
 .data          0x00000000        0x0 c:/program files (x86)/microchip/mplabc32/v2.02/bin/../lib/gcc/pic32mx/4.5.1/../../../../pic32mx/lib\libc.a(strncat.o)

.mdebug.abi32%z163
                0x00000000        0x0
 .mdebug.abi32  0x00000000        0x0 c:/program files (x86)/microchip/mplabc32/v2.02/bin/../lib/gcc/pic32mx/4.5.1/../../../../pic32mx/lib\libc.a(strchr.o)

.bss%z164       0x00000000        0x0
 .bss           0x00000000        0x0 c:/program files (x86)/microchip/mplabc32/v2.02/bin/../lib/gcc/pic32mx/4.5.1/../../../../pic32mx/lib\libc.a(strchr.o)

.data%z165      0x00000000        0x0
 .data          0x00000000        0x0 c:/program files (x86)/microchip/mplabc32/v2.02/bin/../lib/gcc/pic32mx/4.5.1/../../../../pic32mx/lib\libc.a(strchr.o)

.mdebug.abi32%z166
                0x00000000        0x0
 .mdebug.abi32  0x00000000        0x0 c:/program files (x86)/microchip/mplabc32/v2.02/bin/../lib/gcc/pic32mx/4.5.1/../../../../pic32mx/lib\libc.a(strcat.o)

.bss%z167       0x00000000        0x0
 .bss           0x00000000        0x0 c:/program files (x86)/microchip/mplabc32/v2.02/bin/../lib/gcc/pic32mx/4.5.1/../../../../pic32mx/lib\libc.a(strcat.o)

.data%z168      0x00000000        0x0
 .data          0x00000000        0x0 c:/program files (x86)/microchip/mplabc32/v2.02/bin/../lib/gcc/pic32mx/4.5.1/../../../../pic32mx/lib\libc.a(strcat.o)

.mdebug.abi32%z169
                0x00000000        0x0
 .mdebug.abi32  0x00000000        0x0 c:/program files (x86)/microchip/mplabc32/v2.02/bin/../lib/gcc/pic32mx/4.5.1/../../../../pic32mx/lib\libc.a(mktime.o)

.bss%z170       0x00000000        0x0
 .bss           0x00000000        0x0 c:/program files (x86)/microchip/mplabc32/v2.02/bin/../lib/gcc/pic32mx/4.5.1/../../../../pic32mx/lib\libc.a(mktime.o)

.data%z171      0x00000000        0x0
 .data          0x00000000        0x0 c:/program files (x86)/microchip/mplabc32/v2.02/bin/../lib/gcc/pic32mx/4.5.1/../../../../pic32mx/lib\libc.a(mktime.o)

.mdebug.abi32%z172
                0x00000000        0x0
 .mdebug.abi32  0x00000000        0x0 c:/program files (x86)/microchip/mplabc32/v2.02/bin/../lib/gcc/pic32mx/4.5.1/../../../../pic32mx/lib\libc.a(ctypef.o)

.bss%z173       0x00000000        0x0
 .bss           0x00000000        0x0 c:/program files (x86)/microchip/mplabc32/v2.02/bin/../lib/gcc/pic32mx/4.5.1/../../../../pic32mx/lib\libc.a(ctypef.o)

.data%z174      0x00000000        0x0
 .data          0x00000000        0x0 c:/program files (x86)/microchip/mplabc32/v2.02/bin/../lib/gcc/pic32mx/4.5.1/../../../../pic32mx/lib\libc.a(ctypef.o)

.mdebug.abi32%z175
                0x00000000        0x0
 .mdebug.abi32  0x00000000        0x0 c:/program files (x86)/microchip/mplabc32/v2.02/bin/../lib/gcc/pic32mx/4.5.1/../../../../pic32mx/lib\libc.a(ctype.o)

.bss%z176       0x00000000        0x0
 .bss           0x00000000        0x0 c:/program files (x86)/microchip/mplabc32/v2.02/bin/../lib/gcc/pic32mx/4.5.1/../../../../pic32mx/lib\libc.a(ctype.o)

.data%z177      0x00000000        0x0
 .data          0x00000000        0x0 c:/program files (x86)/microchip/mplabc32/v2.02/bin/../lib/gcc/pic32mx/4.5.1/../../../../pic32mx/lib\libc.a(ctype.o)

.mdebug.abi32%z178
                0x00000000        0x0
 .mdebug.abi32  0x00000000        0x0 c:/program files (x86)/microchip/mplabc32/v2.02/bin/../lib/gcc/pic32mx/4.5.1/../../../../pic32mx/lib\libc.a(ctime.o)

.data%z179      0x00000000        0x0
 .data          0x00000000        0x0 c:/program files (x86)/microchip/mplabc32/v2.02/bin/../lib/gcc/pic32mx/4.5.1/../../../../pic32mx/lib\libc.a(ctime.o)

.mdebug.abi32%z180
                0x00000000        0x0
 .mdebug.abi32  0x00000000        0x0 c:/program files (x86)/microchip/mplabc32/v2.02/bin/../lib/gcc/pic32mx/4.5.1/../../../../pic32mx/lib\libc.a(atol.o)

.bss%z181       0x00000000        0x0
 .bss           0x00000000        0x0 c:/program files (x86)/microchip/mplabc32/v2.02/bin/../lib/gcc/pic32mx/4.5.1/../../../../pic32mx/lib\libc.a(atol.o)

.data%z182      0x00000000        0x0
 .data          0x00000000        0x0 c:/program files (x86)/microchip/mplabc32/v2.02/bin/../lib/gcc/pic32mx/4.5.1/../../../../pic32mx/lib\libc.a(atol.o)

.mdebug.abi32%z183
                0x00000000        0x0
 .mdebug.abi32  0x00000000        0x0 c:/program files (x86)/microchip/mplabc32/v2.02/bin/../lib/gcc/pic32mx/4.5.1/../../../../pic32mx/lib\libc.a(atoi.o)

.bss%z184       0x00000000        0x0
 .bss           0x00000000        0x0 c:/program files (x86)/microchip/mplabc32/v2.02/bin/../lib/gcc/pic32mx/4.5.1/../../../../pic32mx/lib\libc.a(atoi.o)

.data%z185      0x00000000        0x0
 .data          0x00000000        0x0 c:/program files (x86)/microchip/mplabc32/v2.02/bin/../lib/gcc/pic32mx/4.5.1/../../../../pic32mx/lib\libc.a(atoi.o)

.bss%z186       0x00000000        0x0
 .bss           0x00000000        0x0 c:/program files (x86)/microchip/mplabc32/v2.02/bin/../lib/gcc/pic32mx/4.5.1/../../../../pic32mx/lib\libc.a(general-exception.o)

.data%z187      0x00000000        0x0
 .data          0x00000000        0x0 c:/program files (x86)/microchip/mplabc32/v2.02/bin/../lib/gcc/pic32mx/4.5.1/../../../../pic32mx/lib\libc.a(general-exception.o)

.bss%z188       0x00000000        0x0
 .bss           0x00000000        0x0 c:/program files (x86)/microchip/mplabc32/v2.02/bin/../lib/gcc/pic32mx/4.5.1/../../../../pic32mx/lib\libc.a(strlen.o)

.data%z189      0x00000000        0x0
 .data          0x00000000        0x0 c:/program files (x86)/microchip/mplabc32/v2.02/bin/../lib/gcc/pic32mx/4.5.1/../../../../pic32mx/lib\libc.a(strlen.o)

.bss%z190       0x00000000        0x0
 .bss           0x00000000        0x0 c:/program files (x86)/microchip/mplabc32/v2.02/bin/../lib/gcc/pic32mx/4.5.1/../../../../pic32mx/lib\libc.a(strcpy.o)

.data%z191      0x00000000        0x0
 .data          0x00000000        0x0 c:/program files (x86)/microchip/mplabc32/v2.02/bin/../lib/gcc/pic32mx/4.5.1/../../../../pic32mx/lib\libc.a(strcpy.o)

.bss%z192       0x00000000        0x0
 .bss           0x00000000        0x0 c:/program files (x86)/microchip/mplabc32/v2.02/bin/../lib/gcc/pic32mx/4.5.1/../../../../pic32mx/lib\libc.a(strcmp.o)

.data%z193      0x00000000        0x0
 .data          0x00000000        0x0 c:/program files (x86)/microchip/mplabc32/v2.02/bin/../lib/gcc/pic32mx/4.5.1/../../../../pic32mx/lib\libc.a(strcmp.o)

.bss%z194       0x00000000        0x0
 .bss           0x00000000        0x0 c:/program files (x86)/microchip/mplabc32/v2.02/bin/../lib/gcc/pic32mx/4.5.1/../../../../pic32mx/lib\libc.a(memset.o)

.data%z195      0x00000000        0x0
 .data          0x00000000        0x0 c:/program files (x86)/microchip/mplabc32/v2.02/bin/../lib/gcc/pic32mx/4.5.1/../../../../pic32mx/lib\libc.a(memset.o)

.bss%z196       0x00000000        0x0
 .bss           0x00000000        0x0 c:/program files (x86)/microchip/mplabc32/v2.02/bin/../lib/gcc/pic32mx/4.5.1/../../../../pic32mx/lib\libc.a(memcpy.o)

.data%z197      0x00000000        0x0
 .data          0x00000000        0x0 c:/program files (x86)/microchip/mplabc32/v2.02/bin/../lib/gcc/pic32mx/4.5.1/../../../../pic32mx/lib\libc.a(memcpy.o)

.mdebug.abi32%z198
                0x00000000        0x0
 .mdebug.abi32  0x00000000        0x0 c:/program files (x86)/microchip/mplabc32/v2.02/bin/../lib/gcc/pic32mx/4.5.1\libgcc.a(floatunsisf.o)

.bss%z199       0x00000000        0x0
 .bss           0x00000000        0x0 c:/program files (x86)/microchip/mplabc32/v2.02/bin/../lib/gcc/pic32mx/4.5.1\libgcc.a(floatunsisf.o)

.data%z200      0x00000000        0x0
 .data          0x00000000        0x0 c:/program files (x86)/microchip/mplabc32/v2.02/bin/../lib/gcc/pic32mx/4.5.1\libgcc.a(floatunsisf.o)

.mdebug.abi32%z201
                0x00000000        0x0
 .mdebug.abi32  0x00000000        0x0 build/default/production/src/eauglycolee.o

.bss%z202       0x00000000        0x0
 .bss           0x00000000        0x0 build/default/production/src/eauglycolee.o

.data%z203      0x00000000        0x0
 .data          0x00000000        0x0 build/default/production/src/eauglycolee.o

.mdebug.abi32%z204
                0x00000000        0x0
 .mdebug.abi32  0x00000000        0x0 build/default/production/src/terminal.o

.bss%z205       0x00000000        0x0
 .bss           0x00000000        0x0 build/default/production/src/terminal.o

.data%z206      0x00000000        0x0
 .data          0x00000000        0x0 build/default/production/src/terminal.o

.mdebug.abi32%z207
                0x00000000        0x0
 .mdebug.abi32  0x00000000        0x0 build/default/production/src/historique.o

.bss%z208       0x00000000        0x0
 .bss           0x00000000        0x0 build/default/production/src/historique.o

.data%z209      0x00000000        0x0
 .data          0x00000000        0x0 build/default/production/src/historique.o

.mdebug.abi32%z210
                0x00000000        0x0
 .mdebug.abi32  0x00000000        0x0 build/default/production/src/variables.o

.bss%z211       0x00000000        0x0
 .bss           0x00000000        0x0 build/default/production/src/variables.o

.data%z212      0x00000000        0x0
 .data          0x00000000        0x0 build/default/production/src/variables.o

.mdebug.abi32%z213
                0x00000000        0x0
 .mdebug.abi32  0x00000000        0x0 build/default/production/src/uart.o

.data%z214      0x00000000        0x0
 .data          0x00000000        0x0 build/default/production/src/uart.o

.mdebug.abi32%z215
                0x00000000        0x0
 .mdebug.abi32  0x00000000        0x0 build/default/production/src/tor.o

.bss%z216       0x00000000        0x0
 .bss           0x00000000        0x0 build/default/production/src/tor.o

.data%z217      0x00000000        0x0
 .data          0x00000000        0x0 build/default/production/src/tor.o

.mdebug.abi32%z218
                0x00000000        0x0
 .mdebug.abi32  0x00000000        0x0 build/default/production/src/timers.o

.bss%z219       0x00000000        0x0
 .bss           0x00000000        0x0 build/default/production/src/timers.o

.data%z220      0x00000000        0x0
 .data          0x00000000        0x0 build/default/production/src/timers.o

.mdebug.abi32%z221
                0x00000000        0x0
 .mdebug.abi32  0x00000000        0x0 build/default/production/src/slvxsbus.o

.bss%z222       0x00000000        0x0
 .bss           0x00000000        0x0 build/default/production/src/slvxsbus.o

.data%z223      0x00000000        0x0
 .data          0x00000000        0x0 build/default/production/src/slvxsbus.o

.mdebug.abi32%z224
                0x00000000        0x0
 .mdebug.abi32  0x00000000        0x0 build/default/production/src/secteur.o

.bss%z225       0x00000000        0x0
 .bss           0x00000000        0x0 build/default/production/src/secteur.o

.data%z226      0x00000000        0x0
 .data          0x00000000        0x0 build/default/production/src/secteur.o

.mdebug.abi32%z227
                0x00000000        0x0
 .mdebug.abi32  0x00000000        0x0 build/default/production/src/s1d13700.o

.bss%z228       0x00000000        0x0
 .bss           0x00000000        0x0 build/default/production/src/s1d13700.o

.data%z229      0x00000000        0x0
 .data          0x00000000        0x0 build/default/production/src/s1d13700.o

.mdebug.abi32%z230
                0x00000000        0x0
 .mdebug.abi32  0x00000000        0x0 build/default/production/src/rtc.o

.bss%z231       0x00000000        0x0
 .bss           0x00000000        0x0 build/default/production/src/rtc.o

.data%z232      0x00000000        0x0
 .data          0x00000000        0x0 build/default/production/src/rtc.o

.mdebug.abi32%z233
                0x00000000        0x0
 .mdebug.abi32  0x00000000        0x0 build/default/production/src/relais.o

.bss%z234       0x00000000        0x0
 .bss           0x00000000        0x0 build/default/production/src/relais.o

.data%z235      0x00000000        0x0
 .data          0x00000000        0x0 build/default/production/src/relais.o

.mdebug.abi32%z236
                0x00000000        0x0
 .mdebug.abi32  0x00000000        0x0 build/default/production/src/pwm.o

.bss%z237       0x00000000        0x0
 .bss           0x00000000        0x0 build/default/production/src/pwm.o

.data%z238      0x00000000        0x0
 .data          0x00000000        0x0 build/default/production/src/pwm.o

.mdebug.abi32%z239
                0x00000000        0x0
 .mdebug.abi32  0x00000000        0x0 build/default/production/src/mtrxsbus.o

.bss%z240       0x00000000        0x0
 .bss           0x00000000        0x0 build/default/production/src/mtrxsbus.o

.data%z241      0x00000000        0x0
 .data          0x00000000        0x0 build/default/production/src/mtrxsbus.o

.mdebug.abi32%z242
                0x00000000        0x0
 .mdebug.abi32  0x00000000        0x0 build/default/production/src/main.o

.bss%z243       0x00000000        0x0
 .bss           0x00000000        0x0 build/default/production/src/main.o

.data%z244      0x00000000        0x0
 .data          0x00000000        0x0 build/default/production/src/main.o

.mdebug.abi32%z245
                0x00000000        0x0
 .mdebug.abi32  0x00000000        0x0 build/default/production/src/kalman.o

.bss%z246       0x00000000        0x0
 .bss           0x00000000        0x0 build/default/production/src/kalman.o

.data%z247      0x00000000        0x0
 .data          0x00000000        0x0 build/default/production/src/kalman.o

.mdebug.abi32%z248
                0x00000000        0x0
 .mdebug.abi32  0x00000000        0x0 build/default/production/src/image.o

.bss%z249       0x00000000        0x0
 .bss           0x00000000        0x0 build/default/production/src/image.o

.data%z250      0x00000000        0x0
 .data          0x00000000        0x0 build/default/production/src/image.o

.mdebug.abi32%z251
                0x00000000        0x0
 .mdebug.abi32  0x00000000        0x0 build/default/production/src/gsm.o

.bss%z252       0x00000000        0x0
 .bss           0x00000000        0x0 build/default/production/src/gsm.o

.mdebug.abi32%z253
                0x00000000        0x0
 .mdebug.abi32  0x00000000        0x0 build/default/production/src/gsm+.o

.bss%z254       0x00000000        0x0
 .bss           0x00000000        0x0 build/default/production/src/gsm+.o

.mdebug.abi32%z255
                0x00000000        0x0
 .mdebug.abi32  0x00000000        0x0 build/default/production/src/graphics.o

.bss%z256       0x00000000        0x0
 .bss           0x00000000        0x0 build/default/production/src/graphics.o

.data%z257      0x00000000        0x0
 .data          0x00000000        0x0 build/default/production/src/graphics.o

.mdebug.abi32%z258
                0x00000000        0x0
 .mdebug.abi32  0x00000000        0x0 build/default/production/src/font.o

.bss%z259       0x00000000        0x0
 .bss           0x00000000        0x0 build/default/production/src/font.o

.data%z260      0x00000000        0x0
 .data          0x00000000        0x0 build/default/production/src/font.o

.mdebug.abi32%z261
                0x00000000        0x0
 .mdebug.abi32  0x00000000        0x0 build/default/production/src/exceptions.o

.bss%z262       0x00000000        0x0
 .bss           0x00000000        0x0 build/default/production/src/exceptions.o

.data%z263      0x00000000        0x0
 .data          0x00000000        0x0 build/default/production/src/exceptions.o

.mdebug.abi32%z264
                0x00000000        0x0
 .mdebug.abi32  0x00000000        0x0 build/default/production/src/echantillonnage.o

.bss%z265       0x00000000        0x0
 .bss           0x00000000        0x0 build/default/production/src/echantillonnage.o

.data%z266      0x00000000        0x0
 .data          0x00000000        0x0 build/default/production/src/echantillonnage.o

.mdebug.abi32%z267
                0x00000000        0x0
 .mdebug.abi32  0x00000000        0x0 build/default/production/src/config.o

.bss%z268       0x00000000        0x0
 .bss           0x00000000        0x0 build/default/production/src/config.o

.data%z269      0x00000000        0x0
 .data          0x00000000        0x0 build/default/production/src/config.o

.mdebug.abi32%z270
                0x00000000        0x0
 .mdebug.abi32  0x00000000        0x0 build/default/production/src/comsbusmaitre.o

.bss%z271       0x00000000        0x0
 .bss           0x00000000        0x0 build/default/production/src/comsbusmaitre.o

.data%z272      0x00000000        0x0
 .data          0x00000000        0x0 build/default/production/src/comsbusmaitre.o

.mdebug.abi32%z273
                0x00000000        0x0
 .mdebug.abi32  0x00000000        0x0 build/default/production/src/clock.o

.bss%z274       0x00000000        0x0
 .bss           0x00000000        0x0 build/default/production/src/clock.o

.mdebug.abi32%z275
                0x00000000        0x0
 .mdebug.abi32  0x00000000        0x0 build/default/production/src/can.o

.bss%z276       0x00000000        0x0
 .bss           0x00000000        0x0 build/default/production/src/can.o

.mdebug.abi32%z277
                0x00000000        0x0
 .mdebug.abi32  0x00000000        0x0 build/default/production/src/anatype.o

.bss%z278       0x00000000        0x0
 .bss           0x00000000        0x0 build/default/production/src/anatype.o

.data%z279      0x00000000        0x0
 .data          0x00000000        0x0 build/default/production/src/anatype.o

.mdebug.abi32%z280
                0x00000000        0x0
 .mdebug.abi32  0x00000000        0x0 build/default/production/src/ads7846.o

.bss%z281       0x00000000        0x0
 .bss           0x00000000        0x0 build/default/production/src/ads7846.o

.data%z282      0x00000000        0x0
 .data          0x00000000        0x0 build/default/production/src/ads7846.o

.bss%z283       0x00000000        0x0
 .bss           0x00000000        0x0 c:/program files (x86)/microchip/mplabc32/v2.02/bin/../lib/gcc/pic32mx/4.5.1/../../../../pic32mx/lib/crt0.o

.data%z284      0x00000000        0x0
 .data          0x00000000        0x0 c:/program files (x86)/microchip/mplabc32/v2.02/bin/../lib/gcc/pic32mx/4.5.1/../../../../pic32mx/lib/crt0.o

.text           0x9d000050     0x8db8
 .text          0x9d000050     0x8db8 build/default/production/src/gsm.o
                0x9d000050                gsm_Init
                0x9d000740                gsm_IsValideTelephone
                0x9d0007c4                strtrim
                0x9d000840                strrcmp
                0x9d0008bc                gsm_NomStation
                0x9d0008fc                gsm_SendCmd
                0x9d000a0c                gsm_SendData
                0x9d000b08                gsm_FctFormatHistoRam
                0x9d000f80                gsm_RAZHistoRam
                0x9d000fc8                gsm_SauvegardeRam
                0x9d00133c                gsm_VerifTransfertUDPH
                0x9d00167c                gsm_GetDataSecUDPH
                0x9d00186c                gsm_GetDataUDPH
                0x9d001934                gsm_Rapport
                0x9d001f44                gsm_RequeteUtilisateur
                0x9d002a58                gsm_DateHeure
                0x9d002d70                gsm_Sbus
                0x9d003248                gsm_TraitementSMS
                0x9d0056b4                gsm_VerifierAlarme
                0x9d005c8c                gsm_UserSMS
                0x9d005cc8                gsm_UserSMSLibre
                0x9d005cdc                gsm_VerifierRapport
                0x9d005d40                gsm_GetDataUDPR
                0x9d00601c                gsm_VerifTransfertUDPR
                0x9d006324                gsm_DesactiveGSM
                0x9d0063ec                gsm_Stop
                0x9d006414                gsm_Gestion
                0x9d00892c                gsm_Trame
                0x9d008cc4                IC1Interrupt

.rodata         0x9d008e08     0x6e04
 .rodata        0x9d008e08     0x3e34 build/default/production/src/image.o
                0x9d008e08                siren
                0x9d008e10                L3073
                0x9d008e50                calendar
                0x9d008e58                L18519
                0x9d008f54                BtnDwn
                0x9d008f5c                L19797
                0x9d008f84                BtnUp
                0x9d008f8c                L9182
                0x9d008fb4                echape
                0x9d008fbc                L21686
                0x9d009004                moteur
                0x9d00900c                L30235
                0x9d009308                Operateur
                0x9d009310                L31451
                0x9d0093ec                alarme
                0x9d0093f4                L19694
                0x9d0094d0                consigne
                0x9d0094d8                L5168
                0x9d0095b4                visu
                0x9d0095bc                L24168
                0x9d009698                canalisation
                0x9d0096a0                L6418
                0x9d0096f4                cycle
                0x9d0096fc                L6206
                0x9d009750                Regime
                0x9d009758                L21101
                0x9d0097ac                pression
                0x9d0097b4                L6281
                0x9d009808                Heure
                0x9d009810                L11951
                0x9d009864                EtatSystem
                0x9d00986c                L32614
                0x9d0098c0                Configdefaut
                0x9d0098c8                L9623
                0x9d00991c                Configirrg
                0x9d009924                L13221
                0x9d009978                PompeAux
                0x9d009980                L11979
                0x9d0099d4                Askdefaut
                0x9d0099dc                L6106
                0x9d009a30                ConfigES
                0x9d009a38                L11740
                0x9d009a8c                Simul
                0x9d009a94                L5688
                0x9d009ae8                Quitter
                0x9d009af0                L20261
                0x9d009b6c                MARCHE
                0x9d009b74                L15033
                0x9d009bf8                ARRET
                0x9d009c00                L29705
                0x9d009c84                angle_H_G
                0x9d009c8c                L28219
                0x9d009ca0                angle_H_D
                0x9d009ca8                L9990
                0x9d009cbc                angle_B_G
                0x9d009cc4                L15422
                0x9d009cd8                angle_B_D
                0x9d009ce0                L19006
                0x9d009cf4                angle_H_G_N
                0x9d009cfc                L4754
                0x9d009d10                angle_H_D_N
                0x9d009d18                L10211
                0x9d009d2c                angle_B_G_N
                0x9d009d34                L7985
                0x9d009d48                angle_B_D_N
                0x9d009d50                L9014
                0x9d009d64                angleinactif
                0x9d009d6c                L28580
                0x9d009e40                angleactif
                0x9d009e48                L9661
                0x9d009f1c                racorde
                0x9d009f24                L11745
                0x9d009f70                AlarmePompe
                0x9d009f78                L11711
                0x9d009fc4                pompe
                0x9d009fcc                L26054
                0x9d00a194                flechsens
                0x9d00a19c                L10669
                0x9d00a1c8                capteurpression
                0x9d00a1d0                L10081
                0x9d00a220                capteurdebet
                0x9d00a228                L25816
                0x9d00a384                canalentree
                0x9d00a38c                L32729
                0x9d00a3a8                FlechUpInv
                0x9d00a3b0                L17081
                0x9d00a3cc                FlechUp
                0x9d00a3d4                L2343
                0x9d00a3f0                FlechDownInv
                0x9d00a3f8                L24307
                0x9d00a414                FlechDown
                0x9d00a41c                L20282
                0x9d00a438                gsm
                0x9d00a440                L29530
                0x9d00a494                divers
                0x9d00a49c                L7968
                0x9d00a4f0                accdec
                0x9d00a4f8                L20965
                0x9d00a54c                triangleG
                0x9d00a554                L29676
                0x9d00a568                triangleD
                0x9d00a570                L19609
                0x9d00a584                triangleGN
                0x9d00a58c                L19606
                0x9d00a5a0                triangleDN
                0x9d00a5a8                L9987
                0x9d00a5bc                oil
                0x9d00a5c4                L81
                0x9d00a618                temperature
                0x9d00a620                L19909
                0x9d00a650                SortieANA
                0x9d00a658                L11695
                0x9d00a6ac                EntreeANA
                0x9d00a6b4                L4407
                0x9d00a708                EntreeTOR
                0x9d00a710                L25635
                0x9d00a764                LumPlus
                0x9d00a76c                L18727
                0x9d00a7f4                LumMoin
                0x9d00a7fc                L21094
                0x9d00a884                Refference
                0x9d00a88c                L14689
                0x9d00a8e0                GeneralAux
                0x9d00a8e8                L27147
                0x9d00a93c                Freq
                0x9d00a944                L6430
                0x9d00a998                debit
                0x9d00a9a0                L2648
                0x9d00a9f4                checkboxOn
                0x9d00a9fc                L8887
                0x9d00aa70                checkboxOff
                0x9d00aa78                L9
                0x9d00aaec                Gflech
                0x9d00aaf4                L17357
                0x9d00ab08                Dflech
                0x9d00ab10                L25426
                0x9d00ab24                SortieTOR
                0x9d00ab2c                L3395
                0x9d00ab80                moteurDiesel
                0x9d00ab88                L2578
                0x9d00abdc                menuhieto
                0x9d00abe4                L12505
                0x9d00b0a0                sablier
                0x9d00b0a8                L7139
                0x9d00b114                etoile
                0x9d00b11c                L20982
                0x9d00b170                icone_AccesFavoris
                0x9d00b178                L20983
                0x9d00b1cc                icone_recherche
                0x9d00b1d4                L11299
                0x9d00b228                icone_porte_quitte_2
                0x9d00b230                L5415
                0x9d00b284                icone_porte_quitte_1
                0x9d00b28c                L14269
                0x9d00b2e0                icone_numero_tel
                0x9d00b2e8                L24331
                0x9d00b33c                icone_demarrage_rapide
                0x9d00b344                L13021
                0x9d00b398                icone_acces_favoris
                0x9d00b3a0                L13664
                0x9d00b3f4                icone_acces_aide
                0x9d00b3fc                L11890
                0x9d00b450                enlever_la_carte_sim_image_retreci1
                0x9d00b458                L18353
                0x9d00c100                FGauche
                0x9d00c108                L360
                0x9d00c174                FDroite
                0x9d00c17c                L12217
                0x9d00c1e8                Retour
                0x9d00c1f0                L30763
                0x9d00c218                cellule
                0x9d00c220                L26840
                0x9d00c274                FlecheDwn
                0x9d00c27c                L5383
                0x9d00c2b8                FlecheUp
                0x9d00c2c0                L5184
                0x9d00c2fc                load1
                0x9d00c304                L12206
                0x9d00c38c                load2
                0x9d00c394                L12317
                0x9d00c41c                VentiloP3
                0x9d00c424                L18546
                0x9d00c478                VentiloP2
                0x9d00c480                L27239
                0x9d00c4d4                VentiloP1
                0x9d00c4dc                L21178
                0x9d00c530                EvapeM
                0x9d00c538                L10948
                0x9d00c570                EvapeA
                0x9d00c578                L14446
                0x9d00c5b0                Thermo
                0x9d00c5b8                L3452
                0x9d00c5f0                Recyclage
                0x9d00c5f8                L19424
                0x9d00c64c                Froid
                0x9d00c654                L28593
                0x9d00c6a8                Degivrage
                0x9d00c6b0                L17574
                0x9d00c704                Degazage
                0x9d00c70c                L13372
                0x9d00c760                triangle
                0x9d00c768                L3914
                0x9d00c77c                aero_2
                0x9d00c784                L17692
                0x9d00c7d0                aero_1
                0x9d00c7d8                L18343
                0x9d00c824                aero_0
                0x9d00c82c                L16669
                0x9d00c878                horsplage
                0x9d00c880                L12083
                0x9d00c8a8                degiv
                0x9d00c8b0                L7777
                0x9d00c8ec                AActive
                0x9d00c8f4                L13009
                0x9d00c948                ASeuil
                0x9d00c950                L27620
                0x9d00c9a4                AEtat
                0x9d00c9ac                L25784
                0x9d00ca00                AAvancer
                0x9d00ca08                L7879
                0x9d00ca5c                GouteEau
                0x9d00ca64                L27047
                0x9d00ca90                glas
                0x9d00ca98                L19510
                0x9d00cab8                ethernet
                0x9d00cac0                L27667
                0x9d00cb14                VanneOn
                0x9d00cb1c                L6477
                0x9d00cba8                VanneOff
                0x9d00cbb0                L30274
 .rodata        0x9d00cc3c     0x2fd0 build/default/production/src/font.o
                0x9d00cc3c                Courier_New_2
                0x9d00cc44                L25836
                0x9d00df0c                Courier_New
                0x9d00df14                L26299
                0x9d00f17c                Terminal
                0x9d00f184                L1321

.text           0x9d00fc0c     0xb798
 .text          0x9d00fc0c     0x25f8 build/default/production/src/gsm+.o
                0x9d00fc0c                gsmplus_Init
                0x9d00fc88                gsmplus_AlarmePeriphe
                0x9d00fd9c                gsmplus_VerifierAlarmePeriphe
                0x9d010100                gsmplus_Gestion
                0x9d010124                gsmplus_RequeteAnaIO
                0x9d0121e8                gsmplus_Requete
 .text          0x9d012204     0x2270 build/default/production/src/mtrxsbus.o
                0x9d012204                mtrxsbus_Init
                0x9d012250                mtrxsbus_Synchronize
                0x9d01243c                mtrxsbus_ReadRTC
                0x9d012784                mtrxsbus_WriteRTC
                0x9d012aa8                mtrxsbus_ReadMultiRTC
                0x9d012e60                mtrxsbus_WriteMultiRTC
                0x9d01314c                mtrxsbus_ReadIOF
                0x9d013528                mtrxsbus_ReadMultiIOF
                0x9d013894                mtrxsbus_WriteOF
                0x9d013bc8                mtrxsbus_WriteMultiOF
                0x9d013ea4                mtrxsbus_ReadMemEx
                0x9d014160                mtrxsbus_WriteMemEx
                0x9d0143fc                mtrxsbus_Reponse
 .text          0x9d014474     0x2090 build/default/production/src/slvxsbus.o
                0x9d014474                slvxsbus_Init
                0x9d014488                slvxsbus_TraiteReadReg
                0x9d014808                slvxsbus_TraiteReadMultiReg
                0x9d014a28                slvxsbus_TraiteReadTimer
                0x9d014af0                slvxsbus_TraiteReadMultiTimer
                0x9d014bec                slvxsbus_TraiteReadFlag
                0x9d014d8c                slvxsbus_TraiteReadMultiFlag
                0x9d014e94                slvxsbus_TraiteReadMem
                0x9d014fb4                slvxsbus_TraiteReadMemEx
                0x9d01515c                slvxsbus_TraiteWriteReg
                0x9d015468                slvxsbus_TraiteWriteMultiReg
                0x9d0155f4                slvxsbus_TraiteWriteTimer
                0x9d0156c0                slvxsbus_TraiteWriteMultiTimer
                0x9d01578c                slvxsbus_TraiteWriteFlag
                0x9d015928                slvxsbus_TraiteWriteMultiFlag
                0x9d0159c0                slvxsbus_TraiteWriteMem
                0x9d015ae0                slvxsbus_TraiteWriteMemEx
                0x9d015c18                slvxsbus_TraiteRun
                0x9d015c28                slvxsbus_TraiteStop
                0x9d015c38                slvxsbus_TraiteReset
                0x9d015c50                slvxsbus_TraiteReadEtat
                0x9d015c58                slvxsbus_Gestion
 .text          0x9d016504     0x1e14 build/default/production/src/comsbusmaitre.o
                0x9d016504                comsbusmaitre_ReponseSbusTrame
                0x9d016578                comsbusmaitre_Init
                0x9d016594                comsbusmaitre_Gestion
 .text          0x9d018318     0x1ab0 build/default/production/src/tor.o
                0x9d018318                tor_init
                0x9d0187e4                tor_SetSorties
                0x9d018808                tor_gestion
                0x9d01954c                tor_Echant
                0x9d0195c4                INT1InterruptHandler
                0x9d0197bc                INT2InterruptHandler
                0x9d0199c0                INT3InterruptHandler
                0x9d019bc4                INT4InterruptHandler
 .text          0x9d019dc8     0x15dc build/default/production/src/anatype.o
                0x9d019dc8                AnaType1_Init
                0x9d019fc4                AnaType1_PointToTemps
                0x9d01a118                AnaType1_Gestion

.text._vfprintf_cdfFnopsuxX
                0x9d01b3a4     0x13a0
 .text._vfprintf_cdfFnopsuxX
                0x9d01b3a4     0x13a0 c:/program files (x86)/microchip/mplabc32/v2.02/bin/../lib/gcc/pic32mx/4.5.1/../../../../pic32mx/lib\libc.a(doprnt_cdfFnopsuxX.eo)
                0x9d01b3a4                _vfprintf_0
                0x9d01b3a4                _vfprintf_cdfFnopsuxX
                0x9d01b3a4                _vfprintf_fF
                0x9d01b3a4                _vfprintf_s

.text           0x9d01c744     0x3958
 .text          0x9d01c744     0x1390 build/default/production/src/echantillonnage.o
                0x9d01c744                Echant_Init
                0x9d01c92c                Echant_Gestion
 .text          0x9d01dad4     0x1370 build/default/production/src/uart.o
                0x9d01dad4                uart5_Write
                0x9d01db68                uart4_Write
                0x9d01dbfc                uart2_Write
                0x9d01dcc8                uart1_Write
                0x9d01dd94                Calcul_CRC16
                0x9d01ddf0                uart1_Init
                0x9d01ded8                uart1_Stop
                0x9d01df10                uart1_Gestion
                0x9d01dfd4                IntUART1Handler
                0x9d01e148                uart2_Init
                0x9d01e230                uart2_Stop
                0x9d01e268                uart2_Gestion
                0x9d01e34c                IntUart2Handler
                0x9d01e4c0                uart3_Init
                0x9d01e560                uart3_Stop
                0x9d01e598                uart3_Write
                0x9d01e668                uart3_Gestion
                0x9d01e6ec                IntUart3Handler
                0x9d01e884                uart4_Init
                0x9d01e924                uart4_Stop
                0x9d01e95c                uart4_Gestion
                0x9d01e9ec                IntUart4Handler
                0x9d01eb60                uart5_Init
                0x9d01ec10                uart5_Stop
                0x9d01ec48                uart5_Gestion
                0x9d01ecd0                IntUart5Handler
 .text          0x9d01ee44     0x1258 build/default/production/src/graphics.o
                0x9d01ee44                graphics_ClearDevice
                0x9d01ee68                graphics_Init
                0x9d01eea0                graphics_Line
                0x9d01f228                graphics_Bevel
                0x9d01f68c                graphics_Bar
                0x9d01f754                graphics_FillBevel
                0x9d01f9e0                graphics_SetFont
                0x9d01fa14                graphics_OutChar
                0x9d01fc78                graphics_OutText
                0x9d01fcf8                graphics_OutTextXY
                0x9d01fd48                graphics_GetTextWidth
                0x9d01fdb8                graphics_GetTextHeight
                0x9d01fdd8                graphics_GetImageWidth
                0x9d01fdf8                graphics_GetImageHeight
                0x9d01fe18                graphics_PutImage1BPP
                0x9d020040                graphics_PutImage

.rodata         0x9d02009c     0x1250
 .rodata        0x9d02009c     0x1250 build/default/production/src/gsm.o
                0x9d0212d4                gsm_ListeVitesse

.text           0x9d0212ec     0x24cc
 .text          0x9d0212ec     0x1128 c:/program files (x86)/microchip/mplabc32/v2.02/bin/../lib/gcc/pic32mx/4.5.1/../../../../pic32mx/lib\libm.a(dp32.o)
                0x9d0212ec                __subdf3
                0x9d0212ec                dpsub
                0x9d0212f4                dpadd
                0x9d0212f4                __adddf3
                0x9d021718                dpmul
                0x9d021718                __muldf3
                0x9d021a40                dpdiv
                0x9d021a40                __divdf3
                0x9d021ef4                __floatsidf
                0x9d021ef4                litodp
                0x9d021f68                ultodp
                0x9d021fb8                fptodp
                0x9d021fb8                __extendsfdf2
                0x9d02205c                __truncdfsf2
                0x9d02205c                dptofp
                0x9d022154                dptoli
                0x9d022154                __fixdfsi
                0x9d0221dc                __fixunsdfsi
                0x9d0221dc                dptoul
                0x9d022260                __nedf2
                0x9d022260                __gtdf2
                0x9d022260                __ledf2
                0x9d022260                __ltdf2
                0x9d022260                __gedf2
                0x9d022260                dpcmp
                0x9d022260                __eqdf2
                0x9d022384                __negdf2
                0x9d02239c                fabs
                0x9d02239c                dpfabs
                0x9d0223b8                nan
                0x9d0223b8                dpnan
 .text          0x9d022414      0x9e0 build/default/production/src/main.o
                0x9d022414                GetSystemClock
                0x9d02241c                init
                0x9d022908                ReadDataMicro2
                0x9d022b68                main
 .text          0x9d022df4      0x9c4 build/default/production/src/rtc.o
                0x9d022df4                ini_tim1
                0x9d022e1c                poll_tim1
                0x9d022ec0                ini_i2c2
                0x9d022fa0                i2c_start
                0x9d022ff8                i2c_restart
                0x9d023050                i2c_stop
                0x9d0230a8                i2c_wr
                0x9d0230f4                i2c_rd
                0x9d023154                i2c_nack
                0x9d0231b8                i2c_ack
                0x9d023208                i2c_rtcc_wr
                0x9d02326c                i2c_rtcc_rd
                0x9d02330c                ini_i2c_rtcc
                0x9d02337c                BcdToDecimal
                0x9d02339c                DecimalToBcd
                0x9d0233c4                rtc_Write
                0x9d02349c                rtc_init
                0x9d023524                rtc_Read
                0x9d0235d4                rtc_SetAlarme
                0x9d0236a8                IC4Interrupt

.rodata         0x9d0237b8      0x9bc
 .rodata        0x9d0237b8      0x9bc build/default/production/src/gsm+.o

.text           0x9d024174      0x8ec
 .text          0x9d024174      0x8ec c:/program files (x86)/microchip/mplabc32/v2.02/bin/../lib/gcc/pic32mx/4.5.1/../../../../pic32mx/lib\libm.a(fp32.o)
                0x9d024174                __subsf3
                0x9d024174                fpsub
                0x9d02417c                fpadd
                0x9d02417c                __addsf3
                0x9d0243e8                fpmul
                0x9d0243e8                __mulsf3
                0x9d0245a0                fpdiv
                0x9d0245a0                __divsf3
                0x9d0247cc                litofp
                0x9d0247cc                sitofp
                0x9d0247cc                __floatsisf
                0x9d024828                uitofp
                0x9d024828                ultofp
                0x9d024874                fptosi
                0x9d024874                fptoli
                0x9d024874                __fixsfsi
                0x9d0248ec                __fixunssfsi
                0x9d0248ec                fptoul
                0x9d0248ec                fptoui
                0x9d024960                __eqsf2
                0x9d024960                __nesf2
                0x9d024960                __lesf2
                0x9d024960                __ltsf2
                0x9d024960                fpcmp
                0x9d024960                __gtsf2
                0x9d024960                __gesf2
                0x9d0249f4                fpfabs
                0x9d0249f4                fabsf
                0x9d024a04                __negsf2
                0x9d024a14                fpnan
                0x9d024a14                nanf

.rodata         0x9d024a60      0x7d4
 .rodata        0x9d024a60      0x7d4 c:/program files (x86)/microchip/mplabc32/v2.02/bin/../lib/gcc/pic32mx/4.5.1/../../../../pic32mx/lib\libmchp_peripheral_32MX795F512L.a(int_tbl_lib.o)
                0x9d024a60                __IntSrcTbl
                0x9d024f7c                __IntVectorTbl

.text           0x9d025234     0x21c8
 .text          0x9d025234      0x790 build/default/production/src/s1d13700.o
                0x9d025234                Delay10us
                0x9d02523c                s1d13700_SendCMD
                0x9d0252b4                s1d13700_SendByte
                0x9d02532c                s1d13700_setCursorAddress
                0x9d025364                s1d13700_OFF
                0x9d025454                s1d13700_Init
                0x9d0256f4                s1d13700_PutPixel
                0x9d025904                s1d13700_Reffrache
                0x9d025968                s1d13700_Clear
                0x9d0259ac                s1d13700_SetBackLight
 .text          0x9d0259c4      0x644 build/default/production/src/timers.o
                0x9d0259c4                timer2_Init
                0x9d025a68                timer2_Stop
                0x9d025a80                timer2_Start
                0x9d025a9c                Timer2Handler
                0x9d025e80                timer4_Init
                0x9d025f20                timer4_GetTimer
                0x9d025f38                timer4_SetTimer
                0x9d025f68                Timer4Handler
 .text          0x9d026008      0x5e4 build/default/production/src/ads7846.o
                0x9d026008                delay
                0x9d026028                ads7846_Cmd
                0x9d026050                ads7846_Init
                0x9d026128                ads7846_Click
                0x9d026140                ads7846_Gestion
                0x9d0262f8                TouchGetX
                0x9d026348                TouchGetY
                0x9d026398                TouchActive
                0x9d0263bc                ads7846_GetMsg
                0x9d0264b4                IC5Interrupt
 .text          0x9d0265ec      0x530 build/default/production/src/variables.o
                0x9d0265ec                SetTimer
                0x9d02661c                GetTimer
                0x9d026648                SetTimerIsr
                0x9d026678                GetTimerIsr
                0x9d0266a4                SetlReg
                0x9d026764                SetfReg
                0x9d026784                GetlReg
                0x9d026850                GetfReg
                0x9d026870                GetOctet
                0x9d0268d8                SetOctet
                0x9d026934                SetFlag
                0x9d026a4c                GetFlag
 .text          0x9d026b1c      0x474 build/default/production/src/secteur.o
                0x9d026b1c                Sec_lecture
                0x9d026b58                Sec_Init
                0x9d026c48                Sec_Ecriture
                0x9d026ce8                Sec_ReadReg
                0x9d026d28                Sec_WriteReg
                0x9d026dc0                Sec_ReadOctet
                0x9d026e14                Sec_WriteOctet
                0x9d026ebc                Sec_Gestion
                0x9d026f34                Sec_Save
 .text          0x9d026f90      0x46c c:/program files (x86)/microchip/mplabc32/v2.02/bin/../lib/gcc/pic32mx/4.5.1\libgcc.a(_umoddi3.o)
                0x9d026f90                __umoddi3

.dinit          0x9d0273fc      0x468
 .dinit         0x9d0273fc      0x468 data_init

.text           0x9d027864      0x884
 .text          0x9d027864      0x448 c:/program files (x86)/microchip/mplabc32/v2.02/bin/../lib/gcc/pic32mx/4.5.1\libgcc.a(_udivdi3.o)
                0x9d027864                __udivdi3
 .text          0x9d027cac      0x43c build/default/production/src/clock.o
                0x9d027cac                clock_GetTimeCompile
                0x9d027d40                clock_GetDateCompile
                0x9d027e28                clock_init
                0x9d027ea0                clock_Gestion
                0x9d027f70                clock_Stop
                0x9d027f88                clock_Start
                0x9d027fa4                clock_GetYear
                0x9d027fac                clock_GetMonth
                0x9d027fb4                clock_GetDay
                0x9d027fbc                clock_GetHour
                0x9d027fc4                clock_GetMinute
                0x9d027fcc                clock_GetSecond
                0x9d027fd4                clock_GetDayOfWeek
                0x9d027fdc                clock_GetDayOfYear
                0x9d027fe4                clock_IsBisextile
                0x9d027fec                clock_SetDateHeure
                0x9d0280ac                clock_MAJ

.text.__strtod  0x9d0280e8      0x3f0
 .text.__strtod
                0x9d0280e8      0x3f0 c:/program files (x86)/microchip/mplabc32/v2.02/bin/../lib/gcc/pic32mx/4.5.1/../../../../pic32mx/lib\libe.a(_strtod.o)
                0x9d0280e8                __strtod

.text           0x9d0284d8      0xb98
 .text          0x9d0284d8      0x3ec build/default/production/src/terminal.o
                0x9d0284d8                terminal_Init
                0x9d028554                strtoupper
                0x9d0285b8                IsAllFF
                0x9d028604                terminal_Bouton
                0x9d0286d4                terminal_Gestion
 .text          0x9d0288c4      0x3dc c:/program files (x86)/microchip/mplabc32/v2.02/bin/../lib/gcc/pic32mx/4.5.1/../../../../pic32mx/lib\libm.a(fpmod32.o)
                0x9d0288c4                fmodf
                0x9d0288c4                fpfmod
                0x9d028a08                frexpf
                0x9d028a08                fpfrexp
                0x9d028a8c                __mchp_ldexpf
                0x9d028a8c                fpldexp
                0x9d028bd0                fpmodf
                0x9d028bd0                modff
 .text          0x9d028ca0      0x3d0 build/default/production/src/can.o
                0x9d028ca0                can_Init
                0x9d028e58                can_Stop
                0x9d028eac                can_Valide
                0x9d028ebc                can_Gestion

.text.asctime   0x9d029070      0x2f0
 .text.asctime  0x9d029070      0x2f0 c:/program files (x86)/microchip/mplabc32/v2.02/bin/../lib/gcc/pic32mx/4.5.1/../../../../pic32mx/lib\libc.a(ctime.o)
                0x9d029070                asctime

.text.gmtime    0x9d029360      0x2ac
 .text.gmtime   0x9d029360      0x2ac c:/program files (x86)/microchip/mplabc32/v2.02/bin/../lib/gcc/pic32mx/4.5.1/../../../../pic32mx/lib\libc.a(ctime.o)
                0x9d029360                gmtime

.text           0x9d02960c      0x2a0
 .text          0x9d02960c      0x2a0 c:/program files (x86)/microchip/mplabc32/v2.02/bin/../lib/gcc/pic32mx/4.5.1/../../../../pic32mx/lib\libm.a(fpsqrt32.o)
                0x9d02960c                fpexsqrt
                0x9d029704                fpsqrt
                0x9d029704                __mchp_sqrtf

.text.scale     0x9d0298ac      0x260
 .text.scale    0x9d0298ac      0x260 c:/program files (x86)/microchip/mplabc32/v2.02/bin/../lib/gcc/pic32mx/4.5.1/../../../../pic32mx/lib\libc.a(doprnt_cdfFnopsuxX.eo)

.text           0x9d029b0c      0x480
 .text          0x9d029b0c      0x244 build/default/production/src/relais.o
                0x9d029b0c                InitRelais
                0x9d029b78                GestionRelais
 .text          0x9d029d50      0x23c build/default/production/src/config.o
                0x9d029d50                config_Write
                0x9d029e44                config_Read
                0x9d029e60                config_String
                0x9d029e9c                config_Char
                0x9d029ed8                config_Short
                0x9d029f14                config_Long
                0x9d029f50                config_Double

.text.__floatdisf
                0x9d029f8c      0x214
 .text.__floatdisf
                0x9d029f8c      0x214 c:/program files (x86)/microchip/mplabc32/v2.02/bin/../lib/gcc/pic32mx/4.5.1/../../../../pic32mx/lib\libe.a(_floatdisf.o)
                0x9d029f8c                __floatdisf

.rodata         0x9d02a1a0      0x200
 .rodata        0x9d02a1a0      0x200 build/default/production/src/uart.o
                0x9d02a1a0                CrcTable

.text           0x9d02a3a0      0x1e8
 .text          0x9d02a3a0      0x1e8 build/default/production/src/pwm.o
                0x9d02a3a0                pwm_init
                0x9d02a4b8                pwm_Gestion
                0x9d02a53c                pwm_Arret

.text.__ldexp   0x9d02a588      0x1d4
 .text.__ldexp  0x9d02a588      0x1d4 c:/program files (x86)/microchip/mplabc32/v2.02/bin/../lib/gcc/pic32mx/4.5.1/../../../../pic32mx/lib\libe.a(_ldexp.o)
                0x9d02a588                __ldexp

.text           0x9d02a75c      0x5d8
 .text          0x9d02a75c      0x1a0 c:/program files (x86)/microchip/mplabc32/v2.02/bin/../lib/gcc/pic32mx/4.5.1/../../../../pic32mx/lib\libc.a(strcpy.o)
                0x9d02a75c                strcpy
 .text          0x9d02a8fc      0x168 build/default/production/src/historique.o
                0x9d02a8fc                historique_Write
                0x9d02aa00                historique_Read
                0x9d02aa24                historique_RAZ
 .text          0x9d02aa64      0x168 c:/program files (x86)/microchip/mplabc32/v2.02/bin/../lib/gcc/pic32mx/4.5.1/../../../../pic32mx/lib\libc.a(memcpy.o)
                0x9d02aa64                memcpy
 .text          0x9d02abcc      0x168 c:/program files (x86)/microchip/mplabc32/v2.02/bin/../lib/gcc/pic32mx/4.5.1/../../../../pic32mx/lib\libc.a(strlen.o)
                0x9d02abcc                strlen

.text.OSCConfig
                0x9d02ad34      0x168
 .text.OSCConfig
                0x9d02ad34      0x168 c:/program files (x86)/microchip/mplabc32/v2.02/bin/../lib/gcc/pic32mx/4.5.1/../../../../pic32mx/lib\libmchp_peripheral_32MX795F512L.a(osc_config_lib.o)
                0x9d02ad34                OSCConfig

.text.mktime    0x9d02ae9c      0x150
 .text.mktime   0x9d02ae9c      0x150 c:/program files (x86)/microchip/mplabc32/v2.02/bin/../lib/gcc/pic32mx/4.5.1/../../../../pic32mx/lib\libc.a(mktime.o)
                0x9d02ae9c                mktime

.text.SpiChnOpen
                0x9d02afec      0x150
 .text.SpiChnOpen
                0x9d02afec      0x150 c:/program files (x86)/microchip/mplabc32/v2.02/bin/../lib/gcc/pic32mx/4.5.1/../../../../pic32mx/lib\libmchp_peripheral_32MX795F512L.a(spi_chn_open_lib.o)
                0x9d02afec                SpiChnOpen

.text.fputc     0x9d02b13c      0x140
 .text.fputc    0x9d02b13c      0x140 c:/program files (x86)/microchip/mplabc32/v2.02/bin/../lib/gcc/pic32mx/4.5.1/../../../../pic32mx/lib\libc.a(_fputc_simple.o)
                0x9d02b13c                fputc

.text._flsbuf   0x9d02b27c      0x12c
 .text._flsbuf  0x9d02b27c      0x12c c:/program files (x86)/microchip/mplabc32/v2.02/bin/../lib/gcc/pic32mx/4.5.1/../../../../pic32mx/lib\libc.a(_flsbuf_simple.o)
                0x9d02b27c                _flsbuf

.text           0x9d02b3a8      0x240
 .text          0x9d02b3a8      0x120 build/default/production/src/kalman.o
                0x9d02b3a8                FiltreKalman
 .text          0x9d02b4c8      0x120 c:/program files (x86)/microchip/mplabc32/v2.02/bin/../lib/gcc/pic32mx/4.5.1/../../../../pic32mx/lib\libc.a(strcmp.o)
                0x9d02b4c8                strcmp

.text.xtoi      0x9d02b5e8      0x120
 .text.xtoi     0x9d02b5e8      0x120 c:/program files (x86)/microchip/mplabc32/v2.02/bin/../lib/gcc/pic32mx/4.5.1/../../../../pic32mx/lib\libc.a(xtoi.o)
                0x9d02b5e8                xtoi

.text._NVMOperation
                0x9d02b708      0x114
 .text._NVMOperation
                0x9d02b708      0x114 c:/program files (x86)/microchip/mplabc32/v2.02/bin/../lib/gcc/pic32mx/4.5.1/../../../../pic32mx/lib\libmchp_peripheral_32MX795F512L.a(nvm_operation_lib.o)
                0x9d02b708                _NVMOperation

.rodata         0x9d02b81c      0x210
 .rodata        0x9d02b81c      0x10c build/default/production/src/anatype.o
                0x9d02b81c                can_AnaPoint
 .rodata        0x9d02b928      0x104 c:/program files (x86)/microchip/mplabc32/v2.02/bin/../lib/gcc/pic32mx/4.5.1/../../../../pic32mx/lib\libc.a(ctype.o)
                0x9d02b928                _ctype

.text.strtok    0x9d02ba2c       0xf0
 .text.strtok   0x9d02ba2c       0xf0 c:/program files (x86)/microchip/mplabc32/v2.02/bin/../lib/gcc/pic32mx/4.5.1/../../../../pic32mx/lib\libc.a(strtok.o)
                0x9d02ba2c                strtok

.text.ymd_to_scalar
                0x9d02bb1c       0xec
 .text.ymd_to_scalar
                0x9d02bb1c       0xec c:/program files (x86)/microchip/mplabc32/v2.02/bin/../lib/gcc/pic32mx/4.5.1/../../../../pic32mx/lib\libc.a(mktime.o)

.rodata         0x9d02bc08       0xe0
 .rodata        0x9d02bc08       0xe0 c:/program files (x86)/microchip/mplabc32/v2.02/bin/../lib/gcc/pic32mx/4.5.1/../../../../pic32mx/lib\libc.a(doprnt_cdfFnopsuxX.eo)

.text           0x9d02bce8       0xd4
 .text          0x9d02bce8       0xd4 c:/program files (x86)/microchip/mplabc32/v2.02/bin/../lib/gcc/pic32mx/4.5.1\libgcc.a(_floatundisf.o)
                0x9d02bce8                __floatundisf

.text.general_exception
                0x9d02bdbc       0xd0
 .text.general_exception
                0x9d02bdbc       0xd0 c:/program files (x86)/microchip/mplabc32/v2.02/bin/../lib/gcc/pic32mx/4.5.1/../../../../pic32mx/lib\libc.a(general-exception.o)
                0x9d02bdbc                _general_exception_context

.text._mon_putc
                0x9d02be8c       0xb4
 .text._mon_putc
                0x9d02be8c       0xb4 c:/program files (x86)/microchip/mplabc32/v2.02/bin/../lib/gcc/pic32mx/4.5.1/../../../../pic32mx/lib\libc.a(_mon_putc.o)
                0x9d02be8c                _mon_putc

.text           0x9d02bf40       0xa8
 .text          0x9d02bf40       0xa8 c:/program files (x86)/microchip/mplabc32/v2.02/bin/../lib/gcc/pic32mx/4.5.1/../../../../pic32mx/lib\libc.a(memset.o)
                0x9d02bf40                memset

.text.atoi      0x9d02bfe8       0xa4
 .text.atoi     0x9d02bfe8       0xa4 c:/program files (x86)/microchip/mplabc32/v2.02/bin/../lib/gcc/pic32mx/4.5.1/../../../../pic32mx/lib\libc.a(atoi.o)
                0x9d02bfe8                atoi

.text.atol      0x9d02c08c       0xa4
 .text.atol     0x9d02c08c       0xa4 c:/program files (x86)/microchip/mplabc32/v2.02/bin/../lib/gcc/pic32mx/4.5.1/../../../../pic32mx/lib\libc.a(atol.o)
                0x9d02c08c                atol

.text.strstr    0x9d02c130       0xa4
 .text.strstr   0x9d02c130       0xa4 c:/program files (x86)/microchip/mplabc32/v2.02/bin/../lib/gcc/pic32mx/4.5.1/../../../../pic32mx/lib\libc.a(strstr.o)
                0x9d02c130                strstr

.rodata         0x9d02c1d4       0xa0
 .rodata        0x9d02c1d4       0xa0 c:/program files (x86)/microchip/mplabc32/v2.02/bin/../lib/gcc/pic32mx/4.5.1/../../../../pic32mx/lib\libmchp_peripheral_32MX795F512L.a(spi_io_tbl_libp.o)
                0x9d02c1d4                _SpiIoTbl

.text.write     0x9d02c274       0x88
 .text.write    0x9d02c274       0x88 c:/program files (x86)/microchip/mplabc32/v2.02/bin/../lib/gcc/pic32mx/4.5.1/../../../../pic32mx/lib\libc.a(write.o)
                0x9d02c274                write

.text.UARTEnable
                0x9d02c2fc       0x80
 .text.UARTEnable
                0x9d02c2fc       0x80 c:/program files (x86)/microchip/mplabc32/v2.02/bin/../lib/gcc/pic32mx/4.5.1/../../../../pic32mx/lib\libmchp_peripheral_32MX795F512L.a(uart_lib.o)
                0x9d02c2fc                UARTEnable

.text.SoftReset
                0x9d02c37c       0x78
 .text.SoftReset
                0x9d02c37c       0x78 c:/program files (x86)/microchip/mplabc32/v2.02/bin/../lib/gcc/pic32mx/4.5.1/../../../../pic32mx/lib\libmchp_peripheral_32MX795F512L.a(soft_reset_lib.o)
                0x9d02c37c                SoftReset

.text.strncmp   0x9d02c3f4       0x70
 .text.strncmp  0x9d02c3f4       0x70 c:/program files (x86)/microchip/mplabc32/v2.02/bin/../lib/gcc/pic32mx/4.5.1/../../../../pic32mx/lib\libc.a(strncmp.o)
                0x9d02c3f4                strncmp

.text.strcspn   0x9d02c464       0x6c
 .text.strcspn  0x9d02c464       0x6c c:/program files (x86)/microchip/mplabc32/v2.02/bin/../lib/gcc/pic32mx/4.5.1/../../../../pic32mx/lib\libc.a(strcspn.o)
                0x9d02c464                strcspn

.text.strspn    0x9d02c4d0       0x6c
 .text.strspn   0x9d02c4d0       0x6c c:/program files (x86)/microchip/mplabc32/v2.02/bin/../lib/gcc/pic32mx/4.5.1/../../../../pic32mx/lib\libc.a(strspn.o)
                0x9d02c4d0                strspn

.text._sprintf_cdfFnopsuxX
                0x9d02c53c       0x68
 .text._sprintf_cdfFnopsuxX
                0x9d02c53c       0x68 c:/program files (x86)/microchip/mplabc32/v2.02/bin/../lib/gcc/pic32mx/4.5.1/../../../../pic32mx/lib\libc.a(sprintf_cdfFnopsuxX.eo)
                0x9d02c53c                _sprintf_s
                0x9d02c53c                _sprintf_0
                0x9d02c53c                _sprintf_fF
                0x9d02c53c                _sprintf_cdfFnopsuxX

.rodata         0x9d02c5a4       0x68
 .rodata        0x9d02c5a4       0x68 c:/program files (x86)/microchip/mplabc32/v2.02/bin/../lib/gcc/pic32mx/4.5.1/../../../../pic32mx/lib\libc.a(powers.o)
                0x9d02c5a4                _powers_f
                0x9d02c5d8                _npowers_f

.text.strncat   0x9d02c60c       0x64
 .text.strncat  0x9d02c60c       0x64 c:/program files (x86)/microchip/mplabc32/v2.02/bin/../lib/gcc/pic32mx/4.5.1/../../../../pic32mx/lib\libc.a(strncat.o)
                0x9d02c60c                strncat

.text.strncpy   0x9d02c670       0x64
 .text.strncpy  0x9d02c670       0x64 c:/program files (x86)/microchip/mplabc32/v2.02/bin/../lib/gcc/pic32mx/4.5.1/../../../../pic32mx/lib\libc.a(strncpy.o)
                0x9d02c670                strncpy

.text.UARTSetDataRate
                0x9d02c6d4       0x5c
 .text.UARTSetDataRate
                0x9d02c6d4       0x5c c:/program files (x86)/microchip/mplabc32/v2.02/bin/../lib/gcc/pic32mx/4.5.1/../../../../pic32mx/lib\libmchp_peripheral_32MX795F512L.a(uart_lib.o)
                0x9d02c6d4                UARTSetDataRate

.text.INTEnable
                0x9d02c730       0x58
 .text.INTEnable
                0x9d02c730       0x58 c:/program files (x86)/microchip/mplabc32/v2.02/bin/../lib/gcc/pic32mx/4.5.1/../../../../pic32mx/lib\libmchp_peripheral_32MX795F512L.a(int_tbl_lib.o)
                0x9d02c730                INTEnable

.rodata         0x9d02c788       0xa4
 .rodata        0x9d02c788       0x54 c:/program files (x86)/microchip/mplabc32/v2.02/bin/../lib/gcc/pic32mx/4.5.1/../../../../pic32mx/lib\libmchp_peripheral_32MX795F512L.a(_ports_tbl_libp.o)
                0x9d02c788                PortRegTbl
 .rodata        0x9d02c7dc       0x50 build/default/production/src/clock.o

.text           0x9d02c82c       0x4c
 .text          0x9d02c82c       0x4c c:/program files (x86)/microchip/mplabc32/v2.02/bin/../lib/gcc/pic32mx/4.5.1\libgcc.a(floatunsisf.o)
                0x9d02c82c                __floatunsisf

.rodata         0x9d02c878       0x4c
 .rodata        0x9d02c878       0x4c c:/program files (x86)/microchip/mplabc32/v2.02/bin/../lib/gcc/pic32mx/4.5.1/../../../../pic32mx/lib\libc.a(ctime.o)

.text.sqrtf     0x9d02c8c4       0x4c
 .text.sqrtf    0x9d02c8c4       0x4c c:/program files (x86)/microchip/mplabc32/v2.02/bin/../lib/gcc/pic32mx/4.5.1/../../../../pic32mx/lib\libm.a(w_sqrtf.o)
                0x9d02c8c4                sqrtf

.text           0x9d02c910       0x88
 .text          0x9d02c910       0x44 c:/program files (x86)/microchip/mplabc32/v2.02/bin/../lib/gcc/pic32mx/4.5.1\libgcc.a(_lshrdi3.o)
                0x9d02c910                __lshrdi3
 .text          0x9d02c954       0x44 c:/program files (x86)/microchip/mplabc32/v2.02/bin/../lib/gcc/pic32mx/4.5.1\libgcc.a(_ashldi3.o)
                0x9d02c954                __ashldi3

.text.PORTSetPinsDigitalIn
                0x9d02c998       0x40
 .text.PORTSetPinsDigitalIn
                0x9d02c998       0x40 c:/program files (x86)/microchip/mplabc32/v2.02/bin/../lib/gcc/pic32mx/4.5.1/../../../../pic32mx/lib\libmchp_peripheral_32MX795F512L.a(port_set_pins_digital_in_lib.o)
                0x9d02c998                PORTSetPinsDigitalIn

.text.PORTSetPinsDigitalOut
                0x9d02c9d8       0x40
 .text.PORTSetPinsDigitalOut
                0x9d02c9d8       0x40 c:/program files (x86)/microchip/mplabc32/v2.02/bin/../lib/gcc/pic32mx/4.5.1/../../../../pic32mx/lib\libmchp_peripheral_32MX795F512L.a(port_set_pins_digital_out_lib.o)
                0x9d02c9d8                PORTSetPinsDigitalOut

.text.UARTGetDataRate
                0x9d02ca18       0x40
 .text.UARTGetDataRate
                0x9d02ca18       0x40 c:/program files (x86)/microchip/mplabc32/v2.02/bin/../lib/gcc/pic32mx/4.5.1/../../../../pic32mx/lib\libmchp_peripheral_32MX795F512L.a(uart_lib.o)
                0x9d02ca18                UARTGetDataRate

.text.localtime
                0x9d02ca58       0x3c
 .text.localtime
                0x9d02ca58       0x3c c:/program files (x86)/microchip/mplabc32/v2.02/bin/../lib/gcc/pic32mx/4.5.1/../../../../pic32mx/lib\libc.a(ctime.o)
                0x9d02ca58                localtime

.text.INTSetVectorPriority
                0x9d02ca94       0x3c
 .text.INTSetVectorPriority
                0x9d02ca94       0x3c c:/program files (x86)/microchip/mplabc32/v2.02/bin/../lib/gcc/pic32mx/4.5.1/../../../../pic32mx/lib\libmchp_peripheral_32MX795F512L.a(int_tbl_lib.o)
                0x9d02ca94                INTSetVectorPriority

.text.INTSetVectorSubPriority
                0x9d02cad0       0x3c
 .text.INTSetVectorSubPriority
                0x9d02cad0       0x3c c:/program files (x86)/microchip/mplabc32/v2.02/bin/../lib/gcc/pic32mx/4.5.1/../../../../pic32mx/lib\libmchp_peripheral_32MX795F512L.a(int_tbl_lib.o)
                0x9d02cad0                INTSetVectorSubPriority

.text.UARTConfigure
                0x9d02cb0c       0x3c
 .text.UARTConfigure
                0x9d02cb0c       0x3c c:/program files (x86)/microchip/mplabc32/v2.02/bin/../lib/gcc/pic32mx/4.5.1/../../../../pic32mx/lib\libmchp_peripheral_32MX795F512L.a(uart_lib.o)
                0x9d02cb0c                UARTConfigure

.text.UARTSetAddress
                0x9d02cb48       0x3c
 .text.UARTSetAddress
                0x9d02cb48       0x3c c:/program files (x86)/microchip/mplabc32/v2.02/bin/../lib/gcc/pic32mx/4.5.1/../../../../pic32mx/lib\libmchp_peripheral_32MX795F512L.a(uart_lib.o)
                0x9d02cb48                UARTSetAddress

.text           0x9d02cb84       0x38
 .text          0x9d02cb84       0x38 build/default/production/src/exceptions.o
                0x9d02cb84                _general_exception_handler

.text.strcat    0x9d02cbbc       0x38
 .text.strcat   0x9d02cbbc       0x38 c:/program files (x86)/microchip/mplabc32/v2.02/bin/../lib/gcc/pic32mx/4.5.1/../../../../pic32mx/lib\libc.a(strcat.o)
                0x9d02cbbc                strcat

.text.NVMWriteRow
                0x9d02cbf4       0x38
 .text.NVMWriteRow
                0x9d02cbf4       0x38 c:/program files (x86)/microchip/mplabc32/v2.02/bin/../lib/gcc/pic32mx/4.5.1/../../../../pic32mx/lib\libmchp_peripheral_32MX795F512L.a(nvm_write_row_lib.o)
                0x9d02cbf4                NVMWriteRow

.text.UARTWatchForAddress
                0x9d02cc2c       0x38
 .text.UARTWatchForAddress
                0x9d02cc2c       0x38 c:/program files (x86)/microchip/mplabc32/v2.02/bin/../lib/gcc/pic32mx/4.5.1/../../../../pic32mx/lib\libmchp_peripheral_32MX795F512L.a(uart_lib.o)
                0x9d02cc2c                UARTWatchForAddress

.text.INTEnableSystemMultiVectoredInt
                0x9d02cc64       0x34
 .text.INTEnableSystemMultiVectoredInt
                0x9d02cc64       0x34 c:/program files (x86)/microchip/mplabc32/v2.02/bin/../lib/gcc/pic32mx/4.5.1/../../../../pic32mx/lib\libmchp_peripheral_32MX795F512L.a(int_enable_mv_int_lib.o)
                0x9d02cc64                INTEnableSystemMultiVectoredInt

.text.INTGetVectorPriority
                0x9d02cc98       0x30
 .text.INTGetVectorPriority
                0x9d02cc98       0x30 c:/program files (x86)/microchip/mplabc32/v2.02/bin/../lib/gcc/pic32mx/4.5.1/../../../../pic32mx/lib\libmchp_peripheral_32MX795F512L.a(int_tbl_lib.o)
                0x9d02cc98                INTGetVectorPriority

.text.INTGetVectorSubPriority
                0x9d02ccc8       0x30
 .text.INTGetVectorSubPriority
                0x9d02ccc8       0x30 c:/program files (x86)/microchip/mplabc32/v2.02/bin/../lib/gcc/pic32mx/4.5.1/../../../../pic32mx/lib\libmchp_peripheral_32MX795F512L.a(int_tbl_lib.o)
                0x9d02ccc8                INTGetVectorSubPriority

.text.INTClearFlag
                0x9d02ccf8       0x2c
 .text.INTClearFlag
                0x9d02ccf8       0x2c c:/program files (x86)/microchip/mplabc32/v2.02/bin/../lib/gcc/pic32mx/4.5.1/../../../../pic32mx/lib\libmchp_peripheral_32MX795F512L.a(int_tbl_lib.o)
                0x9d02ccf8                INTClearFlag

.text.INTSetFlag
                0x9d02cd24       0x2c
 .text.INTSetFlag
                0x9d02cd24       0x2c c:/program files (x86)/microchip/mplabc32/v2.02/bin/../lib/gcc/pic32mx/4.5.1/../../../../pic32mx/lib\libmchp_peripheral_32MX795F512L.a(int_tbl_lib.o)
                0x9d02cd24                INTSetFlag

.text.INTGetFlag
                0x9d02cd50       0x2c
 .text.INTGetFlag
                0x9d02cd50       0x2c c:/program files (x86)/microchip/mplabc32/v2.02/bin/../lib/gcc/pic32mx/4.5.1/../../../../pic32mx/lib\libmchp_peripheral_32MX795F512L.a(int_tbl_lib.o)
                0x9d02cd50                INTGetFlag

.text.INTGetEnable
                0x9d02cd7c       0x2c
 .text.INTGetEnable
                0x9d02cd7c       0x2c c:/program files (x86)/microchip/mplabc32/v2.02/bin/../lib/gcc/pic32mx/4.5.1/../../../../pic32mx/lib\libmchp_peripheral_32MX795F512L.a(int_tbl_lib.o)
                0x9d02cd7c                INTGetEnable

.text.NVMErasePage
                0x9d02cda8       0x2c
 .text.NVMErasePage
                0x9d02cda8       0x2c c:/program files (x86)/microchip/mplabc32/v2.02/bin/../lib/gcc/pic32mx/4.5.1/../../../../pic32mx/lib\libmchp_peripheral_32MX795F512L.a(nvm_erase_page_lib.o)
                0x9d02cda8                NVMErasePage

.text.strchr    0x9d02cdd4       0x28
 .text.strchr   0x9d02cdd4       0x28 c:/program files (x86)/microchip/mplabc32/v2.02/bin/../lib/gcc/pic32mx/4.5.1/../../../../pic32mx/lib\libc.a(strchr.o)
                0x9d02cdd4                strchr

.text.atof      0x9d02cdfc       0x28
 .text.atof     0x9d02cdfc       0x28 c:/program files (x86)/microchip/mplabc32/v2.02/bin/../lib/gcc/pic32mx/4.5.1/../../../../pic32mx/lib\libc.a(atof.o)
                0x9d02cdfc                atof

.text.UARTSetFifoMode
                0x9d02ce24       0x28
 .text.UARTSetFifoMode
                0x9d02ce24       0x28 c:/program files (x86)/microchip/mplabc32/v2.02/bin/../lib/gcc/pic32mx/4.5.1/../../../../pic32mx/lib\libmchp_peripheral_32MX795F512L.a(uart_lib.o)
                0x9d02ce24                UARTSetFifoMode

.text.UARTSetLineControl
                0x9d02ce4c       0x28
 .text.UARTSetLineControl
                0x9d02ce4c       0x28 c:/program files (x86)/microchip/mplabc32/v2.02/bin/../lib/gcc/pic32mx/4.5.1/../../../../pic32mx/lib\libmchp_peripheral_32MX795F512L.a(uart_lib.o)
                0x9d02ce4c                UARTSetLineControl

.text.tolower   0x9d02ce74       0x24
 .text.tolower  0x9d02ce74       0x24 c:/program files (x86)/microchip/mplabc32/v2.02/bin/../lib/gcc/pic32mx/4.5.1/../../../../pic32mx/lib\libc.a(ctypef.o)
                0x9d02ce74                tolower

.text.toupper   0x9d02ce98       0x24
 .text.toupper  0x9d02ce98       0x24 c:/program files (x86)/microchip/mplabc32/v2.02/bin/../lib/gcc/pic32mx/4.5.1/../../../../pic32mx/lib\libc.a(ctypef.o)
                0x9d02ce98                toupper

.text.ctime     0x9d02cebc       0x20
 .text.ctime    0x9d02cebc       0x20 c:/program files (x86)/microchip/mplabc32/v2.02/bin/../lib/gcc/pic32mx/4.5.1/../../../../pic32mx/lib\libc.a(ctime.o)
                0x9d02cebc                ctime

.text.strtod    0x9d02cedc       0x1c
 .text.strtod   0x9d02cedc       0x1c c:/program files (x86)/microchip/mplabc32/v2.02/bin/../lib/gcc/pic32mx/4.5.1/../../../../pic32mx/lib\libc.a(strtod.o)
                0x9d02cedc                strtod

.text._dstrtod  0x9d02cef8       0x1c
 .text._dstrtod
                0x9d02cef8       0x1c c:/program files (x86)/microchip/mplabc32/v2.02/bin/../lib/gcc/pic32mx/4.5.1/../../../../pic32mx/lib\libc.a(strtod.o)
                0x9d02cef8                _dstrtod

.text.INTRestoreInterrupts
                0x9d02cf14       0x1c
 .text.INTRestoreInterrupts
                0x9d02cf14       0x1c c:/program files (x86)/microchip/mplabc32/v2.02/bin/../lib/gcc/pic32mx/4.5.1/../../../../pic32mx/lib\libmchp_peripheral_32MX795F512L.a(int_restore_interrupts_lib.o)
                0x9d02cf14                INTRestoreInterrupts

.rodata         0x9d02cf30       0x18
 .rodata        0x9d02cf30       0x18 build/default/production/src/terminal.o

.text.isalnum   0x9d02cf48       0x18
 .text.isalnum  0x9d02cf48       0x18 c:/program files (x86)/microchip/mplabc32/v2.02/bin/../lib/gcc/pic32mx/4.5.1/../../../../pic32mx/lib\libc.a(ctypef.o)
                0x9d02cf48                isalnum

.text.isalpha   0x9d02cf60       0x18
 .text.isalpha  0x9d02cf60       0x18 c:/program files (x86)/microchip/mplabc32/v2.02/bin/../lib/gcc/pic32mx/4.5.1/../../../../pic32mx/lib\libc.a(ctypef.o)
                0x9d02cf60                isalpha

.text.iscntrl   0x9d02cf78       0x18
 .text.iscntrl  0x9d02cf78       0x18 c:/program files (x86)/microchip/mplabc32/v2.02/bin/../lib/gcc/pic32mx/4.5.1/../../../../pic32mx/lib\libc.a(ctypef.o)
                0x9d02cf78                iscntrl

.text.isdigit   0x9d02cf90       0x18
 .text.isdigit  0x9d02cf90       0x18 c:/program files (x86)/microchip/mplabc32/v2.02/bin/../lib/gcc/pic32mx/4.5.1/../../../../pic32mx/lib\libc.a(ctypef.o)
                0x9d02cf90                isdigit

.text.isgraph   0x9d02cfa8       0x18
 .text.isgraph  0x9d02cfa8       0x18 c:/program files (x86)/microchip/mplabc32/v2.02/bin/../lib/gcc/pic32mx/4.5.1/../../../../pic32mx/lib\libc.a(ctypef.o)
                0x9d02cfa8                isgraph

.text.islower   0x9d02cfc0       0x18
 .text.islower  0x9d02cfc0       0x18 c:/program files (x86)/microchip/mplabc32/v2.02/bin/../lib/gcc/pic32mx/4.5.1/../../../../pic32mx/lib\libc.a(ctypef.o)
                0x9d02cfc0                islower

.text.isprint   0x9d02cfd8       0x18
 .text.isprint  0x9d02cfd8       0x18 c:/program files (x86)/microchip/mplabc32/v2.02/bin/../lib/gcc/pic32mx/4.5.1/../../../../pic32mx/lib\libc.a(ctypef.o)
                0x9d02cfd8                isprint

.text.ispunct   0x9d02cff0       0x18
 .text.ispunct  0x9d02cff0       0x18 c:/program files (x86)/microchip/mplabc32/v2.02/bin/../lib/gcc/pic32mx/4.5.1/../../../../pic32mx/lib\libc.a(ctypef.o)
                0x9d02cff0                ispunct

.text.isspace   0x9d02d008       0x18
 .text.isspace  0x9d02d008       0x18 c:/program files (x86)/microchip/mplabc32/v2.02/bin/../lib/gcc/pic32mx/4.5.1/../../../../pic32mx/lib\libc.a(ctypef.o)
                0x9d02d008                isspace

.text.isupper   0x9d02d020       0x18
 .text.isupper  0x9d02d020       0x18 c:/program files (x86)/microchip/mplabc32/v2.02/bin/../lib/gcc/pic32mx/4.5.1/../../../../pic32mx/lib\libc.a(ctypef.o)
                0x9d02d020                isupper

.text.isxdigit  0x9d02d038       0x18
 .text.isxdigit
                0x9d02d038       0x18 c:/program files (x86)/microchip/mplabc32/v2.02/bin/../lib/gcc/pic32mx/4.5.1/../../../../pic32mx/lib\libc.a(ctypef.o)
                0x9d02d038                isxdigit

.text           0x9d02d050       0x18
 .text          0x9d02d050       0x18 c:/program files (x86)/microchip/mplabc32/v2.02/bin/../lib/gcc/pic32mx/4.5.1/../../../../pic32mx/lib\libc.a(default-nmi-handler.o)
                0x9d02d050                _nmi_handler

.text.CheKseg0CacheOff
                0x9d02d068       0x18
 .text.CheKseg0CacheOff
                0x9d02d068       0x18 c:/program files (x86)/microchip/mplabc32/v2.02/bin/../lib/gcc/pic32mx/4.5.1/../../../../pic32mx/lib\libmchp_peripheral_32MX795F512L.a(pcache.o)
                0x9d02d068                CheKseg0CacheOff

.text.CheKseg0CacheOn
                0x9d02d080       0x18
 .text.CheKseg0CacheOn
                0x9d02d080       0x18 c:/program files (x86)/microchip/mplabc32/v2.02/bin/../lib/gcc/pic32mx/4.5.1/../../../../pic32mx/lib\libmchp_peripheral_32MX795F512L.a(pcache.o)
                0x9d02d080                CheKseg0CacheOn

.rodata         0x9d02d098       0x2c
 .rodata        0x9d02d098       0x18 c:/program files (x86)/microchip/mplabc32/v2.02/bin/../lib/gcc/pic32mx/4.5.1/../../../../pic32mx/lib\libmchp_peripheral_32MX795F512L.a(uart_lib.o)
                0x9d02d098                uartReg
 .rodata        0x9d02d0b0       0x14 c:/program files (x86)/microchip/mplabc32/v2.02/bin/../lib/gcc/pic32mx/4.5.1/../../../../pic32mx/lib\libmchp_peripheral_32MX795F512L.a(spi_map_tbl_libp.o)
                0x9d02d0b0                _SpiMapTbl

.text           0x9d02d0c4       0x10
 .text          0x9d02d0c4       0x10 c:/program files (x86)/microchip/mplabc32/v2.02/bin/../lib/gcc/pic32mx/4.5.1/../../../../pic32mx/lib/crt0.o
                0x9d02d0cc                __crt0_exit

.rodata         0x9d02d0d4       0x10
 .rodata        0x9d02d0d4       0x10 build/default/production/src/echantillonnage.o

.text           0x9d02d0e4       0x10
 .text          0x9d02d0e4       0x10 build/default/production/src/eauglycolee.o
                0x9d02d0e4                InitEauGlycolee
                0x9d02d0ec                GestionEauGlycolee

.rodata         0x9d02d0f8       0x1c
 .rodata        0x9d02d0f8       0x10 c:/program files (x86)/microchip/mplabc32/v2.02/bin/../lib/gcc/pic32mx/4.5.1/../../../../pic32mx/lib\libe.a(_strtod.o)
 .rodata        0x9d02d108        0xc build/default/production/src/ads7846.o

.text._bootstrap_exception_handler
                0x9d02d114        0xc
 .text._bootstrap_exception_handler
                0x9d02d114        0xc c:/program files (x86)/microchip/mplabc32/v2.02/bin/../lib/gcc/pic32mx/4.5.1/../../../../pic32mx/lib\libc.a(default-bootstrap-exception-handler.o)
                0x9d02d114                _bootstrap_exception_handler

.rodata         0x9d02d120        0x8
 .rodata        0x9d02d120        0x8 build/default/production/src/tor.o

.text.isascii   0x9d02d128        0x8
 .text.isascii  0x9d02d128        0x8 c:/program files (x86)/microchip/mplabc32/v2.02/bin/../lib/gcc/pic32mx/4.5.1/../../../../pic32mx/lib\libc.a(ctypef.o)
                0x9d02d128                isascii

.text.toascii   0x9d02d130        0x8
 .text.toascii  0x9d02d130        0x8 c:/program files (x86)/microchip/mplabc32/v2.02/bin/../lib/gcc/pic32mx/4.5.1/../../../../pic32mx/lib\libc.a(ctypef.o)
                0x9d02d130                toascii

.text._tolower  0x9d02d138        0x8
 .text._tolower
                0x9d02d138        0x8 c:/program files (x86)/microchip/mplabc32/v2.02/bin/../lib/gcc/pic32mx/4.5.1/../../../../pic32mx/lib\libc.a(ctypef.o)
                0x9d02d138                _tolower

.text._toupper  0x9d02d140        0x8
 .text._toupper
                0x9d02d140        0x8 c:/program files (x86)/microchip/mplabc32/v2.02/bin/../lib/gcc/pic32mx/4.5.1/../../../../pic32mx/lib\libc.a(ctypef.o)
                0x9d02d140                _toupper

.text._on_reset
                0x9d02d148        0x8
 .text._on_reset
                0x9d02d148        0x8 c:/program files (x86)/microchip/mplabc32/v2.02/bin/../lib/gcc/pic32mx/4.5.1/../../../../pic32mx/lib\libc.a(default-on-reset.o)
                0x9d02d148                _on_reset

.text._on_bootstrap
                0x9d02d150        0x8
 .text._on_bootstrap
                0x9d02d150        0x8 c:/program files (x86)/microchip/mplabc32/v2.02/bin/../lib/gcc/pic32mx/4.5.1/../../../../pic32mx/lib\libc.a(default-on-bootstrap.o)
                0x9d02d150                _on_bootstrap

.rodata         0x9d02d158        0x8
 .rodata        0x9d02d158        0x8 c:/program files (x86)/microchip/mplabc32/v2.02/bin/../lib/gcc/pic32mx/4.5.1/../../../../pic32mx/lib\libe.a(_floatdisf.o)

.text.INTDisableInterrupts
                0x9d02d160        0x8
 .text.INTDisableInterrupts
                0x9d02d160        0x8 c:/program files (x86)/microchip/mplabc32/v2.02/bin/../lib/gcc/pic32mx/4.5.1/../../../../pic32mx/lib\libmchp_peripheral_32MX795F512L.a(int_disable_interrupts_lib.o)
                0x9d02d160                INTDisableInterrupts

.text.INTEnableInterrupts
                0x9d02d168        0x8
 .text.INTEnableInterrupts
                0x9d02d168        0x8 c:/program files (x86)/microchip/mplabc32/v2.02/bin/../lib/gcc/pic32mx/4.5.1/../../../../pic32mx/lib\libmchp_peripheral_32MX795F512L.a(int_enable_interrupts_lib.o)
                0x9d02d168                INTEnableInterrupts

.rodata         0x9d02d170        0x8
 .rodata        0x9d02d170        0x8 c:/program files (x86)/microchip/mplabc32/v2.02/bin/../lib/gcc/pic32mx/4.5.1\libgcc.a(_floatundisf.o)

.rodata         0x9d02d0f4        0x4
 .rodata        0x9d02d0f4        0x4 build/default/production/src/kalman.o

.rodata         0x9d02d178        0x4
 .rodata        0x9d02d178        0x4 build/default/production/src/main.o

.text%z285      0x00000000        0x0
 .text          0x00000000        0x0 c:/program files (x86)/microchip/mplabc32/v2.02/bin/../lib/gcc/pic32mx/4.5.1/../../../../pic32mx/lib/./proc/32MX795F512L\processor.o

.text%z286      0x00000000        0x0
 .text          0x00000000        0x0 c:/program files (x86)/microchip/mplabc32/v2.02/bin/../lib/gcc/pic32mx/4.5.1/../../../../pic32mx/lib\libc.a(errno.o)

.text%z287      0x00000000        0x0
 .text          0x00000000        0x0 c:/program files (x86)/microchip/mplabc32/v2.02/bin/../lib/gcc/pic32mx/4.5.1/../../../../pic32mx/lib\libmchp_peripheral_32MX795F512L.a(int_enable_interrupts_lib.o)

.text%z288      0x00000000        0x0
 .text          0x00000000        0x0 c:/program files (x86)/microchip/mplabc32/v2.02/bin/../lib/gcc/pic32mx/4.5.1/../../../../pic32mx/lib\libmchp_peripheral_32MX795F512L.a(uart_lib.o)

.text%z289      0x00000000        0x0
 .text          0x00000000        0x0 c:/program files (x86)/microchip/mplabc32/v2.02/bin/../lib/gcc/pic32mx/4.5.1/../../../../pic32mx/lib\libmchp_peripheral_32MX795F512L.a(_ports_tbl_libp.o)

.text%z290      0x00000000        0x0
 .text          0x00000000        0x0 c:/program files (x86)/microchip/mplabc32/v2.02/bin/../lib/gcc/pic32mx/4.5.1/../../../../pic32mx/lib\libmchp_peripheral_32MX795F512L.a(port_set_pins_digital_out_lib.o)

.text%z291      0x00000000        0x0
 .text          0x00000000        0x0 c:/program files (x86)/microchip/mplabc32/v2.02/bin/../lib/gcc/pic32mx/4.5.1/../../../../pic32mx/lib\libmchp_peripheral_32MX795F512L.a(port_set_pins_digital_in_lib.o)

.text%z292      0x00000000        0x0
 .text          0x00000000        0x0 c:/program files (x86)/microchip/mplabc32/v2.02/bin/../lib/gcc/pic32mx/4.5.1/../../../../pic32mx/lib\libmchp_peripheral_32MX795F512L.a(nvm_write_row_lib.o)

.text%z293      0x00000000        0x0
 .text          0x00000000        0x0 c:/program files (x86)/microchip/mplabc32/v2.02/bin/../lib/gcc/pic32mx/4.5.1/../../../../pic32mx/lib\libmchp_peripheral_32MX795F512L.a(nvm_operation_lib.o)

.text%z294      0x00000000        0x0
 .text          0x00000000        0x0 c:/program files (x86)/microchip/mplabc32/v2.02/bin/../lib/gcc/pic32mx/4.5.1/../../../../pic32mx/lib\libmchp_peripheral_32MX795F512L.a(nvm_erase_page_lib.o)

.text%z295      0x00000000        0x0
 .text          0x00000000        0x0 c:/program files (x86)/microchip/mplabc32/v2.02/bin/../lib/gcc/pic32mx/4.5.1/../../../../pic32mx/lib\libmchp_peripheral_32MX795F512L.a(spi_map_tbl_libp.o)

.text%z296      0x00000000        0x0
 .text          0x00000000        0x0 c:/program files (x86)/microchip/mplabc32/v2.02/bin/../lib/gcc/pic32mx/4.5.1/../../../../pic32mx/lib\libmchp_peripheral_32MX795F512L.a(spi_io_tbl_libp.o)

.text%z297      0x00000000        0x0
 .text          0x00000000        0x0 c:/program files (x86)/microchip/mplabc32/v2.02/bin/../lib/gcc/pic32mx/4.5.1/../../../../pic32mx/lib\libmchp_peripheral_32MX795F512L.a(spi_chn_open_lib.o)

.text%z298      0x00000000        0x0
 .text          0x00000000        0x0 c:/program files (x86)/microchip/mplabc32/v2.02/bin/../lib/gcc/pic32mx/4.5.1/../../../../pic32mx/lib\libmchp_peripheral_32MX795F512L.a(int_tbl_lib.o)

.text%z299      0x00000000        0x0
 .text          0x00000000        0x0 c:/program files (x86)/microchip/mplabc32/v2.02/bin/../lib/gcc/pic32mx/4.5.1/../../../../pic32mx/lib\libmchp_peripheral_32MX795F512L.a(int_enable_mv_int_lib.o)

.text%z300      0x00000000        0x0
 .text          0x00000000        0x0 c:/program files (x86)/microchip/mplabc32/v2.02/bin/../lib/gcc/pic32mx/4.5.1/../../../../pic32mx/lib\libmchp_peripheral_32MX795F512L.a(int_restore_interrupts_lib.o)

.text%z301      0x00000000        0x0
 .text          0x00000000        0x0 c:/program files (x86)/microchip/mplabc32/v2.02/bin/../lib/gcc/pic32mx/4.5.1/../../../../pic32mx/lib\libmchp_peripheral_32MX795F512L.a(int_disable_interrupts_lib.o)

.text%z302      0x00000000        0x0
 .text          0x00000000        0x0 c:/program files (x86)/microchip/mplabc32/v2.02/bin/../lib/gcc/pic32mx/4.5.1/../../../../pic32mx/lib\libmchp_peripheral_32MX795F512L.a(osc_config_lib.o)

.text%z303      0x00000000        0x0
 .text          0x00000000        0x0 c:/program files (x86)/microchip/mplabc32/v2.02/bin/../lib/gcc/pic32mx/4.5.1/../../../../pic32mx/lib\libmchp_peripheral_32MX795F512L.a(pcache.o)

.text%z304      0x00000000        0x0
 .text          0x00000000        0x0 c:/program files (x86)/microchip/mplabc32/v2.02/bin/../lib/gcc/pic32mx/4.5.1/../../../../pic32mx/lib\libmchp_peripheral_32MX795F512L.a(soft_reset_lib.o)

.text%z305      0x00000000        0x0
 .text          0x00000000        0x0 c:/program files (x86)/microchip/mplabc32/v2.02/bin/../lib/gcc/pic32mx/4.5.1/../../../../pic32mx/lib\libe.a(_ldexp.o)

.text%z306      0x00000000        0x0
 .text          0x00000000        0x0 c:/program files (x86)/microchip/mplabc32/v2.02/bin/../lib/gcc/pic32mx/4.5.1/../../../../pic32mx/lib\libe.a(_strtod.o)

.text%z307      0x00000000        0x0
 .text          0x00000000        0x0 c:/program files (x86)/microchip/mplabc32/v2.02/bin/../lib/gcc/pic32mx/4.5.1/../../../../pic32mx/lib\libe.a(_floatdisf.o)

.text%z308      0x00000000        0x0
 .text          0x00000000        0x0 c:/program files (x86)/microchip/mplabc32/v2.02/bin/../lib/gcc/pic32mx/4.5.1/../../../../pic32mx/lib\libm.a(s_lib_ver.o)

.text%z309      0x00000000        0x0
 .text          0x00000000        0x0 c:/program files (x86)/microchip/mplabc32/v2.02/bin/../lib/gcc/pic32mx/4.5.1/../../../../pic32mx/lib\libm.a(w_sqrtf.o)

.text%z310      0x00000000        0x0
 .text          0x00000000        0x0 c:/program files (x86)/microchip/mplabc32/v2.02/bin/../lib/gcc/pic32mx/4.5.1/../../../../pic32mx/lib\libc.a(c32_uart.o)

.text%z311      0x00000000        0x0
 .text          0x00000000        0x0 c:/program files (x86)/microchip/mplabc32/v2.02/bin/../lib/gcc/pic32mx/4.5.1/../../../../pic32mx/lib\libc.a(_mon_putc.o)

.text%z312      0x00000000        0x0
 .text          0x00000000        0x0 c:/program files (x86)/microchip/mplabc32/v2.02/bin/../lib/gcc/pic32mx/4.5.1/../../../../pic32mx/lib\libc.a(_flsbuf_simple.o)

.text%z313      0x00000000        0x0
 .text          0x00000000        0x0 c:/program files (x86)/microchip/mplabc32/v2.02/bin/../lib/gcc/pic32mx/4.5.1/../../../../pic32mx/lib\libc.a(_iob.o)

.text%z314      0x00000000        0x0
 .text          0x00000000        0x0 c:/program files (x86)/microchip/mplabc32/v2.02/bin/../lib/gcc/pic32mx/4.5.1/../../../../pic32mx/lib\libc.a(write.o)

.text%z315      0x00000000        0x0
 .text          0x00000000        0x0 c:/program files (x86)/microchip/mplabc32/v2.02/bin/../lib/gcc/pic32mx/4.5.1/../../../../pic32mx/lib\libc.a(powers.o)

.text%z316      0x00000000        0x0
 .text          0x00000000        0x0 c:/program files (x86)/microchip/mplabc32/v2.02/bin/../lib/gcc/pic32mx/4.5.1/../../../../pic32mx/lib\libc.a(_fputc_simple.o)

.text%z317      0x00000000        0x0
 .text          0x00000000        0x0 c:/program files (x86)/microchip/mplabc32/v2.02/bin/../lib/gcc/pic32mx/4.5.1/../../../../pic32mx/lib\libc.a(doprnt_cdfFnopsuxX.eo)

.text%z318      0x00000000        0x0
 .text          0x00000000        0x0 c:/program files (x86)/microchip/mplabc32/v2.02/bin/../lib/gcc/pic32mx/4.5.1/../../../../pic32mx/lib\libc.a(strtod.o)

.text%z319      0x00000000        0x0
 .text          0x00000000        0x0 c:/program files (x86)/microchip/mplabc32/v2.02/bin/../lib/gcc/pic32mx/4.5.1/../../../../pic32mx/lib\libc.a(strspn.o)

.text%z320      0x00000000        0x0
 .text          0x00000000        0x0 c:/program files (x86)/microchip/mplabc32/v2.02/bin/../lib/gcc/pic32mx/4.5.1/../../../../pic32mx/lib\libc.a(strcspn.o)

.text%z321      0x00000000        0x0
 .text          0x00000000        0x0 c:/program files (x86)/microchip/mplabc32/v2.02/bin/../lib/gcc/pic32mx/4.5.1/../../../../pic32mx/lib\libc.a(default-on-bootstrap.o)

.text%z322      0x00000000        0x0
 .text          0x00000000        0x0 c:/program files (x86)/microchip/mplabc32/v2.02/bin/../lib/gcc/pic32mx/4.5.1/../../../../pic32mx/lib\libc.a(default-on-reset.o)

.text%z323      0x00000000        0x0
 .text          0x00000000        0x0 c:/program files (x86)/microchip/mplabc32/v2.02/bin/../lib/gcc/pic32mx/4.5.1/../../../../pic32mx/lib\libc.a(default-bootstrap-exception-handler.o)

.text%z324      0x00000000        0x0
 .text          0x00000000        0x0 c:/program files (x86)/microchip/mplabc32/v2.02/bin/../lib/gcc/pic32mx/4.5.1/../../../../pic32mx/lib\libc.a(sprintf_cdfFnopsuxX.eo)

.text%z325      0x00000000        0x0
 .text          0x00000000        0x0 c:/program files (x86)/microchip/mplabc32/v2.02/bin/../lib/gcc/pic32mx/4.5.1/../../../../pic32mx/lib\libc.a(atof.o)

.text%z326      0x00000000        0x0
 .text          0x00000000        0x0 c:/program files (x86)/microchip/mplabc32/v2.02/bin/../lib/gcc/pic32mx/4.5.1/../../../../pic32mx/lib\libc.a(xtoi.o)

.text%z327      0x00000000        0x0
 .text          0x00000000        0x0 c:/program files (x86)/microchip/mplabc32/v2.02/bin/../lib/gcc/pic32mx/4.5.1/../../../../pic32mx/lib\libc.a(strtok.o)

.text%z328      0x00000000        0x0
 .text          0x00000000        0x0 c:/program files (x86)/microchip/mplabc32/v2.02/bin/../lib/gcc/pic32mx/4.5.1/../../../../pic32mx/lib\libc.a(strstr.o)

.text%z329      0x00000000        0x0
 .text          0x00000000        0x0 c:/program files (x86)/microchip/mplabc32/v2.02/bin/../lib/gcc/pic32mx/4.5.1/../../../../pic32mx/lib\libc.a(strncpy.o)

.text%z330      0x00000000        0x0
 .text          0x00000000        0x0 c:/program files (x86)/microchip/mplabc32/v2.02/bin/../lib/gcc/pic32mx/4.5.1/../../../../pic32mx/lib\libc.a(strncmp.o)

.text%z331      0x00000000        0x0
 .text          0x00000000        0x0 c:/program files (x86)/microchip/mplabc32/v2.02/bin/../lib/gcc/pic32mx/4.5.1/../../../../pic32mx/lib\libc.a(strncat.o)

.text%z332      0x00000000        0x0
 .text          0x00000000        0x0 c:/program files (x86)/microchip/mplabc32/v2.02/bin/../lib/gcc/pic32mx/4.5.1/../../../../pic32mx/lib\libc.a(strchr.o)

.text%z333      0x00000000        0x0
 .text          0x00000000        0x0 c:/program files (x86)/microchip/mplabc32/v2.02/bin/../lib/gcc/pic32mx/4.5.1/../../../../pic32mx/lib\libc.a(strcat.o)

.text%z334      0x00000000        0x0
 .text          0x00000000        0x0 c:/program files (x86)/microchip/mplabc32/v2.02/bin/../lib/gcc/pic32mx/4.5.1/../../../../pic32mx/lib\libc.a(mktime.o)

.text%z335      0x00000000        0x0
 .text          0x00000000        0x0 c:/program files (x86)/microchip/mplabc32/v2.02/bin/../lib/gcc/pic32mx/4.5.1/../../../../pic32mx/lib\libc.a(ctypef.o)

.text%z336      0x00000000        0x0
 .text          0x00000000        0x0 c:/program files (x86)/microchip/mplabc32/v2.02/bin/../lib/gcc/pic32mx/4.5.1/../../../../pic32mx/lib\libc.a(ctype.o)

.text%z337      0x00000000        0x0
 .text          0x00000000        0x0 c:/program files (x86)/microchip/mplabc32/v2.02/bin/../lib/gcc/pic32mx/4.5.1/../../../../pic32mx/lib\libc.a(ctime.o)

.text%z338      0x00000000        0x0
 .text          0x00000000        0x0 c:/program files (x86)/microchip/mplabc32/v2.02/bin/../lib/gcc/pic32mx/4.5.1/../../../../pic32mx/lib\libc.a(atol.o)

.text%z339      0x00000000        0x0
 .text          0x00000000        0x0 c:/program files (x86)/microchip/mplabc32/v2.02/bin/../lib/gcc/pic32mx/4.5.1/../../../../pic32mx/lib\libc.a(atoi.o)

.text%z340      0x00000000        0x0
 .text          0x00000000        0x0 c:/program files (x86)/microchip/mplabc32/v2.02/bin/../lib/gcc/pic32mx/4.5.1/../../../../pic32mx/lib\libc.a(general-exception.o)

.text%z341      0x00000000        0x0
 .text          0x00000000        0x0 build/default/production/src/image.o

.text%z342      0x00000000        0x0
 .text          0x00000000        0x0 build/default/production/src/font.o
